
kernel/kernel:     file format elf64-littleriscv


Disassembly of section .text:

0000000080000000 <_entry>:
    80000000:	00008117          	auipc	sp,0x8
    80000004:	a9010113          	add	sp,sp,-1392 # 80007a90 <stack0>
    80000008:	6505                	lui	a0,0x1
    8000000a:	f14025f3          	csrr	a1,mhartid
    8000000e:	0585                	add	a1,a1,1
    80000010:	02b50533          	mul	a0,a0,a1
    80000014:	912a                	add	sp,sp,a0
    80000016:	04a000ef          	jal	80000060 <start>

000000008000001a <spin>:
    8000001a:	a001                	j	8000001a <spin>

000000008000001c <timerinit>:
}

/* ask each hart to generate timer interrupts. */
void
timerinit()
{
    8000001c:	1141                	add	sp,sp,-16
    8000001e:	e422                	sd	s0,8(sp)
    80000020:	0800                	add	s0,sp,16
#define MIE_STIE (1L << 5)  /* supervisor timer */
static inline uint64
r_mie()
{
  uint64 x;
  asm volatile("csrr %0, mie" : "=r" (x) );
    80000022:	304027f3          	csrr	a5,mie
  /* enable supervisor-mode timer interrupts. */
  w_mie(r_mie() | MIE_STIE);
    80000026:	0207e793          	or	a5,a5,32
}

static inline void 
w_mie(uint64 x)
{
  asm volatile("csrw mie, %0" : : "r" (x));
    8000002a:	30479073          	csrw	mie,a5
static inline uint64
r_menvcfg()
{
  uint64 x;
  /* asm volatile("csrr %0, menvcfg" : "=r" (x) ); */
  asm volatile("csrr %0, 0x30a" : "=r" (x) );
    8000002e:	30a027f3          	csrr	a5,0x30a
  
  /* enable the sstc extension (i.e. stimecmp). */
  w_menvcfg(r_menvcfg() | (1L << 63)); 
    80000032:	577d                	li	a4,-1
    80000034:	177e                	sll	a4,a4,0x3f
    80000036:	8fd9                	or	a5,a5,a4

static inline void 
w_menvcfg(uint64 x)
{
  /* asm volatile("csrw menvcfg, %0" : : "r" (x)); */
  asm volatile("csrw 0x30a, %0" : : "r" (x));
    80000038:	30a79073          	csrw	0x30a,a5

static inline uint64
r_mcounteren()
{
  uint64 x;
  asm volatile("csrr %0, mcounteren" : "=r" (x) );
    8000003c:	306027f3          	csrr	a5,mcounteren
  
  /* allow supervisor to use stimecmp and time. */
  w_mcounteren(r_mcounteren() | 2);
    80000040:	0027e793          	or	a5,a5,2
  asm volatile("csrw mcounteren, %0" : : "r" (x));
    80000044:	30679073          	csrw	mcounteren,a5
/* machine-mode cycle counter */
static inline uint64
r_time()
{
  uint64 x;
  asm volatile("csrr %0, time" : "=r" (x) );
    80000048:	c01027f3          	rdtime	a5
  
  /* ask for the very first timer interrupt. */
  w_stimecmp(r_time() + 1000000);
    8000004c:	000f4737          	lui	a4,0xf4
    80000050:	24070713          	add	a4,a4,576 # f4240 <_entry-0x7ff0bdc0>
    80000054:	97ba                	add	a5,a5,a4
  asm volatile("csrw 0x14d, %0" : : "r" (x));
    80000056:	14d79073          	csrw	stimecmp,a5
}
    8000005a:	6422                	ld	s0,8(sp)
    8000005c:	0141                	add	sp,sp,16
    8000005e:	8082                	ret

0000000080000060 <start>:
{
    80000060:	1141                	add	sp,sp,-16
    80000062:	e406                	sd	ra,8(sp)
    80000064:	e022                	sd	s0,0(sp)
    80000066:	0800                	add	s0,sp,16
  asm volatile("csrr %0, mstatus" : "=r" (x) );
    80000068:	300027f3          	csrr	a5,mstatus
  x &= ~MSTATUS_MPP_MASK;
    8000006c:	7779                	lui	a4,0xffffe
    8000006e:	7ff70713          	add	a4,a4,2047 # ffffffffffffe7ff <end+0xffffffff7ffdd83f>
    80000072:	8ff9                	and	a5,a5,a4
  x |= MSTATUS_MPP_S;
    80000074:	6705                	lui	a4,0x1
    80000076:	80070713          	add	a4,a4,-2048 # 800 <_entry-0x7ffff800>
    8000007a:	8fd9                	or	a5,a5,a4
  asm volatile("csrw mstatus, %0" : : "r" (x));
    8000007c:	30079073          	csrw	mstatus,a5
  asm volatile("csrw mepc, %0" : : "r" (x));
    80000080:	00001797          	auipc	a5,0x1
    80000084:	d9478793          	add	a5,a5,-620 # 80000e14 <main>
    80000088:	34179073          	csrw	mepc,a5
  asm volatile("csrw satp, %0" : : "r" (x));
    8000008c:	4781                	li	a5,0
    8000008e:	18079073          	csrw	satp,a5
  asm volatile("csrw medeleg, %0" : : "r" (x));
    80000092:	67c1                	lui	a5,0x10
    80000094:	17fd                	add	a5,a5,-1 # ffff <_entry-0x7fff0001>
    80000096:	30279073          	csrw	medeleg,a5
  asm volatile("csrw mideleg, %0" : : "r" (x));
    8000009a:	30379073          	csrw	mideleg,a5
  asm volatile("csrr %0, sie" : "=r" (x) );
    8000009e:	104027f3          	csrr	a5,sie
  w_sie(r_sie() | SIE_SEIE | SIE_STIE | SIE_SSIE);
    800000a2:	2227e793          	or	a5,a5,546
  asm volatile("csrw sie, %0" : : "r" (x));
    800000a6:	10479073          	csrw	sie,a5
  asm volatile("csrw pmpaddr0, %0" : : "r" (x));
    800000aa:	57fd                	li	a5,-1
    800000ac:	83a9                	srl	a5,a5,0xa
    800000ae:	3b079073          	csrw	pmpaddr0,a5
  asm volatile("csrw pmpcfg0, %0" : : "r" (x));
    800000b2:	47bd                	li	a5,15
    800000b4:	3a079073          	csrw	pmpcfg0,a5
  timerinit();
    800000b8:	f65ff0ef          	jal	8000001c <timerinit>
  asm volatile("csrr %0, mhartid" : "=r" (x) );
    800000bc:	f14027f3          	csrr	a5,mhartid
  w_tp(id);
    800000c0:	2781                	sext.w	a5,a5
}

static inline void 
w_tp(uint64 x)
{
  asm volatile("mv tp, %0" : : "r" (x));
    800000c2:	823e                	mv	tp,a5
  asm volatile("mret");
    800000c4:	30200073          	mret
}
    800000c8:	60a2                	ld	ra,8(sp)
    800000ca:	6402                	ld	s0,0(sp)
    800000cc:	0141                	add	sp,sp,16
    800000ce:	8082                	ret

00000000800000d0 <consolewrite>:
/* */
/* user write()s to the console go here. */
/* */
int
consolewrite(int user_src, uint64 src, int n)
{
    800000d0:	715d                	add	sp,sp,-80
    800000d2:	e486                	sd	ra,72(sp)
    800000d4:	e0a2                	sd	s0,64(sp)
    800000d6:	fc26                	sd	s1,56(sp)
    800000d8:	f84a                	sd	s2,48(sp)
    800000da:	f44e                	sd	s3,40(sp)
    800000dc:	f052                	sd	s4,32(sp)
    800000de:	ec56                	sd	s5,24(sp)
    800000e0:	0880                	add	s0,sp,80
  int i;

  for(i = 0; i < n; i++){
    800000e2:	04c05363          	blez	a2,80000128 <consolewrite+0x58>
    800000e6:	8a2a                	mv	s4,a0
    800000e8:	84ae                	mv	s1,a1
    800000ea:	89b2                	mv	s3,a2
    800000ec:	4901                	li	s2,0
    char c;
    if(either_copyin(&c, user_src, src+i, 1) == -1)
    800000ee:	5afd                	li	s5,-1
    800000f0:	4685                	li	a3,1
    800000f2:	8626                	mv	a2,s1
    800000f4:	85d2                	mv	a1,s4
    800000f6:	fbf40513          	add	a0,s0,-65
    800000fa:	0b4020ef          	jal	800021ae <either_copyin>
    800000fe:	01550b63          	beq	a0,s5,80000114 <consolewrite+0x44>
      break;
    uartputc(c);
    80000102:	fbf44503          	lbu	a0,-65(s0)
    80000106:	7e2000ef          	jal	800008e8 <uartputc>
  for(i = 0; i < n; i++){
    8000010a:	2905                	addw	s2,s2,1
    8000010c:	0485                	add	s1,s1,1
    8000010e:	ff2991e3          	bne	s3,s2,800000f0 <consolewrite+0x20>
    80000112:	894e                	mv	s2,s3
  }

  return i;
}
    80000114:	854a                	mv	a0,s2
    80000116:	60a6                	ld	ra,72(sp)
    80000118:	6406                	ld	s0,64(sp)
    8000011a:	74e2                	ld	s1,56(sp)
    8000011c:	7942                	ld	s2,48(sp)
    8000011e:	79a2                	ld	s3,40(sp)
    80000120:	7a02                	ld	s4,32(sp)
    80000122:	6ae2                	ld	s5,24(sp)
    80000124:	6161                	add	sp,sp,80
    80000126:	8082                	ret
  for(i = 0; i < n; i++){
    80000128:	4901                	li	s2,0
    8000012a:	b7ed                	j	80000114 <consolewrite+0x44>

000000008000012c <consoleread>:
/* user_dist indicates whether dst is a user */
/* or kernel address. */
/* */
int
consoleread(int user_dst, uint64 dst, int n)
{
    8000012c:	711d                	add	sp,sp,-96
    8000012e:	ec86                	sd	ra,88(sp)
    80000130:	e8a2                	sd	s0,80(sp)
    80000132:	e4a6                	sd	s1,72(sp)
    80000134:	e0ca                	sd	s2,64(sp)
    80000136:	fc4e                	sd	s3,56(sp)
    80000138:	f852                	sd	s4,48(sp)
    8000013a:	f456                	sd	s5,40(sp)
    8000013c:	f05a                	sd	s6,32(sp)
    8000013e:	ec5e                	sd	s7,24(sp)
    80000140:	1080                	add	s0,sp,96
    80000142:	8aaa                	mv	s5,a0
    80000144:	8a2e                	mv	s4,a1
    80000146:	89b2                	mv	s3,a2
  uint target;
  int c;
  char cbuf;

  target = n;
    80000148:	00060b1b          	sext.w	s6,a2
  acquire(&cons.lock);
    8000014c:	00010517          	auipc	a0,0x10
    80000150:	94450513          	add	a0,a0,-1724 # 8000fa90 <cons>
    80000154:	24d000ef          	jal	80000ba0 <acquire>
  while(n > 0){
    /* wait until interrupt handler has put some */
    /* input into cons.buffer. */
    while(cons.r == cons.w){
    80000158:	00010497          	auipc	s1,0x10
    8000015c:	93848493          	add	s1,s1,-1736 # 8000fa90 <cons>
      if(killed(myproc())){
        release(&cons.lock);
        return -1;
      }
      sleep(&cons.r, &cons.lock);
    80000160:	00010917          	auipc	s2,0x10
    80000164:	9c890913          	add	s2,s2,-1592 # 8000fb28 <cons+0x98>
  while(n > 0){
    80000168:	07305a63          	blez	s3,800001dc <consoleread+0xb0>
    while(cons.r == cons.w){
    8000016c:	0984a783          	lw	a5,152(s1)
    80000170:	09c4a703          	lw	a4,156(s1)
    80000174:	02f71163          	bne	a4,a5,80000196 <consoleread+0x6a>
      if(killed(myproc())){
    80000178:	6b8010ef          	jal	80001830 <myproc>
    8000017c:	6c5010ef          	jal	80002040 <killed>
    80000180:	e53d                	bnez	a0,800001ee <consoleread+0xc2>
      sleep(&cons.r, &cons.lock);
    80000182:	85a6                	mv	a1,s1
    80000184:	854a                	mv	a0,s2
    80000186:	483010ef          	jal	80001e08 <sleep>
    while(cons.r == cons.w){
    8000018a:	0984a783          	lw	a5,152(s1)
    8000018e:	09c4a703          	lw	a4,156(s1)
    80000192:	fef703e3          	beq	a4,a5,80000178 <consoleread+0x4c>
    }

    c = cons.buf[cons.r++ % INPUT_BUF_SIZE];
    80000196:	00010717          	auipc	a4,0x10
    8000019a:	8fa70713          	add	a4,a4,-1798 # 8000fa90 <cons>
    8000019e:	0017869b          	addw	a3,a5,1
    800001a2:	08d72c23          	sw	a3,152(a4)
    800001a6:	07f7f693          	and	a3,a5,127
    800001aa:	9736                	add	a4,a4,a3
    800001ac:	01874703          	lbu	a4,24(a4)
    800001b0:	00070b9b          	sext.w	s7,a4

    if(c == C('D')){  /* end-of-file */
    800001b4:	4691                	li	a3,4
    800001b6:	04db8e63          	beq	s7,a3,80000212 <consoleread+0xe6>
      }
      break;
    }

    /* copy the input byte to the user-space buffer. */
    cbuf = c;
    800001ba:	fae407a3          	sb	a4,-81(s0)
    if(either_copyout(user_dst, dst, &cbuf, 1) == -1)
    800001be:	4685                	li	a3,1
    800001c0:	faf40613          	add	a2,s0,-81
    800001c4:	85d2                	mv	a1,s4
    800001c6:	8556                	mv	a0,s5
    800001c8:	79d010ef          	jal	80002164 <either_copyout>
    800001cc:	57fd                	li	a5,-1
    800001ce:	00f50763          	beq	a0,a5,800001dc <consoleread+0xb0>
      break;

    dst++;
    800001d2:	0a05                	add	s4,s4,1
    --n;
    800001d4:	39fd                	addw	s3,s3,-1

    if(c == '\n'){
    800001d6:	47a9                	li	a5,10
    800001d8:	f8fb98e3          	bne	s7,a5,80000168 <consoleread+0x3c>
      /* a whole line has arrived, return to */
      /* the user-level read(). */
      break;
    }
  }
  release(&cons.lock);
    800001dc:	00010517          	auipc	a0,0x10
    800001e0:	8b450513          	add	a0,a0,-1868 # 8000fa90 <cons>
    800001e4:	255000ef          	jal	80000c38 <release>

  return target - n;
    800001e8:	413b053b          	subw	a0,s6,s3
    800001ec:	a801                	j	800001fc <consoleread+0xd0>
        release(&cons.lock);
    800001ee:	00010517          	auipc	a0,0x10
    800001f2:	8a250513          	add	a0,a0,-1886 # 8000fa90 <cons>
    800001f6:	243000ef          	jal	80000c38 <release>
        return -1;
    800001fa:	557d                	li	a0,-1
}
    800001fc:	60e6                	ld	ra,88(sp)
    800001fe:	6446                	ld	s0,80(sp)
    80000200:	64a6                	ld	s1,72(sp)
    80000202:	6906                	ld	s2,64(sp)
    80000204:	79e2                	ld	s3,56(sp)
    80000206:	7a42                	ld	s4,48(sp)
    80000208:	7aa2                	ld	s5,40(sp)
    8000020a:	7b02                	ld	s6,32(sp)
    8000020c:	6be2                	ld	s7,24(sp)
    8000020e:	6125                	add	sp,sp,96
    80000210:	8082                	ret
      if(n < target){
    80000212:	0009871b          	sext.w	a4,s3
    80000216:	fd6773e3          	bgeu	a4,s6,800001dc <consoleread+0xb0>
        cons.r--;
    8000021a:	00010717          	auipc	a4,0x10
    8000021e:	90f72723          	sw	a5,-1778(a4) # 8000fb28 <cons+0x98>
    80000222:	bf6d                	j	800001dc <consoleread+0xb0>

0000000080000224 <consputc>:
{
    80000224:	1141                	add	sp,sp,-16
    80000226:	e406                	sd	ra,8(sp)
    80000228:	e022                	sd	s0,0(sp)
    8000022a:	0800                	add	s0,sp,16
  if(c == BACKSPACE){
    8000022c:	10000793          	li	a5,256
    80000230:	00f50863          	beq	a0,a5,80000240 <consputc+0x1c>
    uartputc_sync(c);
    80000234:	5de000ef          	jal	80000812 <uartputc_sync>
}
    80000238:	60a2                	ld	ra,8(sp)
    8000023a:	6402                	ld	s0,0(sp)
    8000023c:	0141                	add	sp,sp,16
    8000023e:	8082                	ret
    uartputc_sync('\b'); uartputc_sync(' '); uartputc_sync('\b');
    80000240:	4521                	li	a0,8
    80000242:	5d0000ef          	jal	80000812 <uartputc_sync>
    80000246:	02000513          	li	a0,32
    8000024a:	5c8000ef          	jal	80000812 <uartputc_sync>
    8000024e:	4521                	li	a0,8
    80000250:	5c2000ef          	jal	80000812 <uartputc_sync>
    80000254:	b7d5                	j	80000238 <consputc+0x14>

0000000080000256 <consoleintr>:
/* do erase/kill processing, append to cons.buf, */
/* wake up consoleread() if a whole line has arrived. */
/* */
void
consoleintr(int c)
{
    80000256:	1101                	add	sp,sp,-32
    80000258:	ec06                	sd	ra,24(sp)
    8000025a:	e822                	sd	s0,16(sp)
    8000025c:	e426                	sd	s1,8(sp)
    8000025e:	e04a                	sd	s2,0(sp)
    80000260:	1000                	add	s0,sp,32
    80000262:	84aa                	mv	s1,a0
  acquire(&cons.lock);
    80000264:	00010517          	auipc	a0,0x10
    80000268:	82c50513          	add	a0,a0,-2004 # 8000fa90 <cons>
    8000026c:	135000ef          	jal	80000ba0 <acquire>

  switch(c){
    80000270:	47d5                	li	a5,21
    80000272:	0af48063          	beq	s1,a5,80000312 <consoleintr+0xbc>
    80000276:	0297c663          	blt	a5,s1,800002a2 <consoleintr+0x4c>
    8000027a:	47a1                	li	a5,8
    8000027c:	0cf48f63          	beq	s1,a5,8000035a <consoleintr+0x104>
    80000280:	47c1                	li	a5,16
    80000282:	10f49063          	bne	s1,a5,80000382 <consoleintr+0x12c>
  case C('P'):  /* Print process list. */
    procdump();
    80000286:	773010ef          	jal	800021f8 <procdump>
      }
    }
    break;
  }
  
  release(&cons.lock);
    8000028a:	00010517          	auipc	a0,0x10
    8000028e:	80650513          	add	a0,a0,-2042 # 8000fa90 <cons>
    80000292:	1a7000ef          	jal	80000c38 <release>
}
    80000296:	60e2                	ld	ra,24(sp)
    80000298:	6442                	ld	s0,16(sp)
    8000029a:	64a2                	ld	s1,8(sp)
    8000029c:	6902                	ld	s2,0(sp)
    8000029e:	6105                	add	sp,sp,32
    800002a0:	8082                	ret
  switch(c){
    800002a2:	07f00793          	li	a5,127
    800002a6:	0af48a63          	beq	s1,a5,8000035a <consoleintr+0x104>
    if(c != 0 && cons.e-cons.r < INPUT_BUF_SIZE){
    800002aa:	0000f717          	auipc	a4,0xf
    800002ae:	7e670713          	add	a4,a4,2022 # 8000fa90 <cons>
    800002b2:	0a072783          	lw	a5,160(a4)
    800002b6:	09872703          	lw	a4,152(a4)
    800002ba:	9f99                	subw	a5,a5,a4
    800002bc:	07f00713          	li	a4,127
    800002c0:	fcf765e3          	bltu	a4,a5,8000028a <consoleintr+0x34>
      c = (c == '\r') ? '\n' : c;
    800002c4:	47b5                	li	a5,13
    800002c6:	0cf48163          	beq	s1,a5,80000388 <consoleintr+0x132>
      consputc(c);
    800002ca:	8526                	mv	a0,s1
    800002cc:	f59ff0ef          	jal	80000224 <consputc>
      cons.buf[cons.e++ % INPUT_BUF_SIZE] = c;
    800002d0:	0000f797          	auipc	a5,0xf
    800002d4:	7c078793          	add	a5,a5,1984 # 8000fa90 <cons>
    800002d8:	0a07a683          	lw	a3,160(a5)
    800002dc:	0016871b          	addw	a4,a3,1
    800002e0:	0007061b          	sext.w	a2,a4
    800002e4:	0ae7a023          	sw	a4,160(a5)
    800002e8:	07f6f693          	and	a3,a3,127
    800002ec:	97b6                	add	a5,a5,a3
    800002ee:	00978c23          	sb	s1,24(a5)
      if(c == '\n' || c == C('D') || cons.e-cons.r == INPUT_BUF_SIZE){
    800002f2:	47a9                	li	a5,10
    800002f4:	0af48f63          	beq	s1,a5,800003b2 <consoleintr+0x15c>
    800002f8:	4791                	li	a5,4
    800002fa:	0af48c63          	beq	s1,a5,800003b2 <consoleintr+0x15c>
    800002fe:	00010797          	auipc	a5,0x10
    80000302:	82a7a783          	lw	a5,-2006(a5) # 8000fb28 <cons+0x98>
    80000306:	9f1d                	subw	a4,a4,a5
    80000308:	08000793          	li	a5,128
    8000030c:	f6f71fe3          	bne	a4,a5,8000028a <consoleintr+0x34>
    80000310:	a04d                	j	800003b2 <consoleintr+0x15c>
    while(cons.e != cons.w &&
    80000312:	0000f717          	auipc	a4,0xf
    80000316:	77e70713          	add	a4,a4,1918 # 8000fa90 <cons>
    8000031a:	0a072783          	lw	a5,160(a4)
    8000031e:	09c72703          	lw	a4,156(a4)
          cons.buf[(cons.e-1) % INPUT_BUF_SIZE] != '\n'){
    80000322:	0000f497          	auipc	s1,0xf
    80000326:	76e48493          	add	s1,s1,1902 # 8000fa90 <cons>
    while(cons.e != cons.w &&
    8000032a:	4929                	li	s2,10
    8000032c:	f4f70fe3          	beq	a4,a5,8000028a <consoleintr+0x34>
          cons.buf[(cons.e-1) % INPUT_BUF_SIZE] != '\n'){
    80000330:	37fd                	addw	a5,a5,-1
    80000332:	07f7f713          	and	a4,a5,127
    80000336:	9726                	add	a4,a4,s1
    while(cons.e != cons.w &&
    80000338:	01874703          	lbu	a4,24(a4)
    8000033c:	f52707e3          	beq	a4,s2,8000028a <consoleintr+0x34>
      cons.e--;
    80000340:	0af4a023          	sw	a5,160(s1)
      consputc(BACKSPACE);
    80000344:	10000513          	li	a0,256
    80000348:	eddff0ef          	jal	80000224 <consputc>
    while(cons.e != cons.w &&
    8000034c:	0a04a783          	lw	a5,160(s1)
    80000350:	09c4a703          	lw	a4,156(s1)
    80000354:	fcf71ee3          	bne	a4,a5,80000330 <consoleintr+0xda>
    80000358:	bf0d                	j	8000028a <consoleintr+0x34>
    if(cons.e != cons.w){
    8000035a:	0000f717          	auipc	a4,0xf
    8000035e:	73670713          	add	a4,a4,1846 # 8000fa90 <cons>
    80000362:	0a072783          	lw	a5,160(a4)
    80000366:	09c72703          	lw	a4,156(a4)
    8000036a:	f2f700e3          	beq	a4,a5,8000028a <consoleintr+0x34>
      cons.e--;
    8000036e:	37fd                	addw	a5,a5,-1
    80000370:	0000f717          	auipc	a4,0xf
    80000374:	7cf72023          	sw	a5,1984(a4) # 8000fb30 <cons+0xa0>
      consputc(BACKSPACE);
    80000378:	10000513          	li	a0,256
    8000037c:	ea9ff0ef          	jal	80000224 <consputc>
    80000380:	b729                	j	8000028a <consoleintr+0x34>
    if(c != 0 && cons.e-cons.r < INPUT_BUF_SIZE){
    80000382:	f00484e3          	beqz	s1,8000028a <consoleintr+0x34>
    80000386:	b715                	j	800002aa <consoleintr+0x54>
      consputc(c);
    80000388:	4529                	li	a0,10
    8000038a:	e9bff0ef          	jal	80000224 <consputc>
      cons.buf[cons.e++ % INPUT_BUF_SIZE] = c;
    8000038e:	0000f797          	auipc	a5,0xf
    80000392:	70278793          	add	a5,a5,1794 # 8000fa90 <cons>
    80000396:	0a07a703          	lw	a4,160(a5)
    8000039a:	0017069b          	addw	a3,a4,1
    8000039e:	0006861b          	sext.w	a2,a3
    800003a2:	0ad7a023          	sw	a3,160(a5)
    800003a6:	07f77713          	and	a4,a4,127
    800003aa:	97ba                	add	a5,a5,a4
    800003ac:	4729                	li	a4,10
    800003ae:	00e78c23          	sb	a4,24(a5)
        cons.w = cons.e;
    800003b2:	0000f797          	auipc	a5,0xf
    800003b6:	76c7ad23          	sw	a2,1914(a5) # 8000fb2c <cons+0x9c>
        wakeup(&cons.r);
    800003ba:	0000f517          	auipc	a0,0xf
    800003be:	76e50513          	add	a0,a0,1902 # 8000fb28 <cons+0x98>
    800003c2:	293010ef          	jal	80001e54 <wakeup>
    800003c6:	b5d1                	j	8000028a <consoleintr+0x34>

00000000800003c8 <consoleinit>:

void
consoleinit(void)
{
    800003c8:	1141                	add	sp,sp,-16
    800003ca:	e406                	sd	ra,8(sp)
    800003cc:	e022                	sd	s0,0(sp)
    800003ce:	0800                	add	s0,sp,16
  initlock(&cons.lock, "cons");
    800003d0:	00007597          	auipc	a1,0x7
    800003d4:	c4058593          	add	a1,a1,-960 # 80007010 <etext+0x10>
    800003d8:	0000f517          	auipc	a0,0xf
    800003dc:	6b850513          	add	a0,a0,1720 # 8000fa90 <cons>
    800003e0:	740000ef          	jal	80000b20 <initlock>

  uartinit();
    800003e4:	3e2000ef          	jal	800007c6 <uartinit>

  /* connect read and write system calls */
  /* to consoleread and consolewrite. */
  devsw[CONSOLE].read = consoleread;
    800003e8:	00020797          	auipc	a5,0x20
    800003ec:	a4078793          	add	a5,a5,-1472 # 8001fe28 <devsw>
    800003f0:	00000717          	auipc	a4,0x0
    800003f4:	d3c70713          	add	a4,a4,-708 # 8000012c <consoleread>
    800003f8:	eb98                	sd	a4,16(a5)
  devsw[CONSOLE].write = consolewrite;
    800003fa:	00000717          	auipc	a4,0x0
    800003fe:	cd670713          	add	a4,a4,-810 # 800000d0 <consolewrite>
    80000402:	ef98                	sd	a4,24(a5)
}
    80000404:	60a2                	ld	ra,8(sp)
    80000406:	6402                	ld	s0,0(sp)
    80000408:	0141                	add	sp,sp,16
    8000040a:	8082                	ret

000000008000040c <printint>:

static char digits[] = "0123456789abcdef";

static void
printint(long long xx, int base, int sign)
{
    8000040c:	7179                	add	sp,sp,-48
    8000040e:	f406                	sd	ra,40(sp)
    80000410:	f022                	sd	s0,32(sp)
    80000412:	ec26                	sd	s1,24(sp)
    80000414:	e84a                	sd	s2,16(sp)
    80000416:	1800                	add	s0,sp,48
  char buf[16];
  int i;
  unsigned long long x;

  if(sign && (sign = (xx < 0)))
    80000418:	c219                	beqz	a2,8000041e <printint+0x12>
    8000041a:	06054e63          	bltz	a0,80000496 <printint+0x8a>
    x = -xx;
  else
    x = xx;
    8000041e:	4881                	li	a7,0
    80000420:	fd040693          	add	a3,s0,-48

  i = 0;
    80000424:	4781                	li	a5,0
  do {
    buf[i++] = digits[x % base];
    80000426:	00007617          	auipc	a2,0x7
    8000042a:	c1260613          	add	a2,a2,-1006 # 80007038 <digits>
    8000042e:	883e                	mv	a6,a5
    80000430:	2785                	addw	a5,a5,1
    80000432:	02b57733          	remu	a4,a0,a1
    80000436:	9732                	add	a4,a4,a2
    80000438:	00074703          	lbu	a4,0(a4)
    8000043c:	00e68023          	sb	a4,0(a3)
  } while((x /= base) != 0);
    80000440:	872a                	mv	a4,a0
    80000442:	02b55533          	divu	a0,a0,a1
    80000446:	0685                	add	a3,a3,1
    80000448:	feb773e3          	bgeu	a4,a1,8000042e <printint+0x22>

  if(sign)
    8000044c:	00088a63          	beqz	a7,80000460 <printint+0x54>
    buf[i++] = '-';
    80000450:	1781                	add	a5,a5,-32
    80000452:	97a2                	add	a5,a5,s0
    80000454:	02d00713          	li	a4,45
    80000458:	fee78823          	sb	a4,-16(a5)
    8000045c:	0028079b          	addw	a5,a6,2

  while(--i >= 0)
    80000460:	02f05563          	blez	a5,8000048a <printint+0x7e>
    80000464:	fd040713          	add	a4,s0,-48
    80000468:	00f704b3          	add	s1,a4,a5
    8000046c:	fff70913          	add	s2,a4,-1
    80000470:	993e                	add	s2,s2,a5
    80000472:	37fd                	addw	a5,a5,-1
    80000474:	1782                	sll	a5,a5,0x20
    80000476:	9381                	srl	a5,a5,0x20
    80000478:	40f90933          	sub	s2,s2,a5
    consputc(buf[i]);
    8000047c:	fff4c503          	lbu	a0,-1(s1)
    80000480:	da5ff0ef          	jal	80000224 <consputc>
  while(--i >= 0)
    80000484:	14fd                	add	s1,s1,-1
    80000486:	ff249be3          	bne	s1,s2,8000047c <printint+0x70>
}
    8000048a:	70a2                	ld	ra,40(sp)
    8000048c:	7402                	ld	s0,32(sp)
    8000048e:	64e2                	ld	s1,24(sp)
    80000490:	6942                	ld	s2,16(sp)
    80000492:	6145                	add	sp,sp,48
    80000494:	8082                	ret
    x = -xx;
    80000496:	40a00533          	neg	a0,a0
  if(sign && (sign = (xx < 0)))
    8000049a:	4885                	li	a7,1
    x = -xx;
    8000049c:	b751                	j	80000420 <printint+0x14>

000000008000049e <printf>:
}

/* Print to the console. */
int
printf(char *fmt, ...)
{
    8000049e:	7155                	add	sp,sp,-208
    800004a0:	e506                	sd	ra,136(sp)
    800004a2:	e122                	sd	s0,128(sp)
    800004a4:	fca6                	sd	s1,120(sp)
    800004a6:	f8ca                	sd	s2,112(sp)
    800004a8:	f4ce                	sd	s3,104(sp)
    800004aa:	f0d2                	sd	s4,96(sp)
    800004ac:	ecd6                	sd	s5,88(sp)
    800004ae:	e8da                	sd	s6,80(sp)
    800004b0:	e4de                	sd	s7,72(sp)
    800004b2:	e0e2                	sd	s8,64(sp)
    800004b4:	fc66                	sd	s9,56(sp)
    800004b6:	f86a                	sd	s10,48(sp)
    800004b8:	f46e                	sd	s11,40(sp)
    800004ba:	0900                	add	s0,sp,144
    800004bc:	8a2a                	mv	s4,a0
    800004be:	e40c                	sd	a1,8(s0)
    800004c0:	e810                	sd	a2,16(s0)
    800004c2:	ec14                	sd	a3,24(s0)
    800004c4:	f018                	sd	a4,32(s0)
    800004c6:	f41c                	sd	a5,40(s0)
    800004c8:	03043823          	sd	a6,48(s0)
    800004cc:	03143c23          	sd	a7,56(s0)
  va_list ap;
  int i, cx, c0, c1, c2, locking;
  char *s;

  locking = pr.locking;
    800004d0:	0000f797          	auipc	a5,0xf
    800004d4:	6807a783          	lw	a5,1664(a5) # 8000fb50 <pr+0x18>
    800004d8:	f6f43c23          	sd	a5,-136(s0)
  if(locking)
    800004dc:	e79d                	bnez	a5,8000050a <printf+0x6c>
    acquire(&pr.lock);

  va_start(ap, fmt);
    800004de:	00840793          	add	a5,s0,8
    800004e2:	f8f43423          	sd	a5,-120(s0)
  for(i = 0; (cx = fmt[i] & 0xff) != 0; i++){
    800004e6:	00054503          	lbu	a0,0(a0)
    800004ea:	24050a63          	beqz	a0,8000073e <printf+0x2a0>
    800004ee:	4981                	li	s3,0
    if(cx != '%'){
    800004f0:	02500a93          	li	s5,37
    i++;
    c0 = fmt[i+0] & 0xff;
    c1 = c2 = 0;
    if(c0) c1 = fmt[i+1] & 0xff;
    if(c1) c2 = fmt[i+2] & 0xff;
    if(c0 == 'd'){
    800004f4:	06400b13          	li	s6,100
      printint(va_arg(ap, int), 10, 1);
    } else if(c0 == 'l' && c1 == 'd'){
    800004f8:	06c00c13          	li	s8,108
      printint(va_arg(ap, uint64), 10, 1);
      i += 1;
    } else if(c0 == 'l' && c1 == 'l' && c2 == 'd'){
      printint(va_arg(ap, uint64), 10, 1);
      i += 2;
    } else if(c0 == 'u'){
    800004fc:	07500c93          	li	s9,117
      printint(va_arg(ap, uint64), 10, 0);
      i += 1;
    } else if(c0 == 'l' && c1 == 'l' && c2 == 'u'){
      printint(va_arg(ap, uint64), 10, 0);
      i += 2;
    } else if(c0 == 'x'){
    80000500:	07800d13          	li	s10,120
      printint(va_arg(ap, uint64), 16, 0);
      i += 1;
    } else if(c0 == 'l' && c1 == 'l' && c2 == 'x'){
      printint(va_arg(ap, uint64), 16, 0);
      i += 2;
    } else if(c0 == 'p'){
    80000504:	07000d93          	li	s11,112
    80000508:	a081                	j	80000548 <printf+0xaa>
    acquire(&pr.lock);
    8000050a:	0000f517          	auipc	a0,0xf
    8000050e:	62e50513          	add	a0,a0,1582 # 8000fb38 <pr>
    80000512:	68e000ef          	jal	80000ba0 <acquire>
  va_start(ap, fmt);
    80000516:	00840793          	add	a5,s0,8
    8000051a:	f8f43423          	sd	a5,-120(s0)
  for(i = 0; (cx = fmt[i] & 0xff) != 0; i++){
    8000051e:	000a4503          	lbu	a0,0(s4)
    80000522:	f571                	bnez	a0,800004ee <printf+0x50>
#endif
  }
  va_end(ap);

  if(locking)
    release(&pr.lock);
    80000524:	0000f517          	auipc	a0,0xf
    80000528:	61450513          	add	a0,a0,1556 # 8000fb38 <pr>
    8000052c:	70c000ef          	jal	80000c38 <release>
    80000530:	a439                	j	8000073e <printf+0x2a0>
      consputc(cx);
    80000532:	cf3ff0ef          	jal	80000224 <consputc>
      continue;
    80000536:	84ce                	mv	s1,s3
  for(i = 0; (cx = fmt[i] & 0xff) != 0; i++){
    80000538:	0014899b          	addw	s3,s1,1
    8000053c:	013a07b3          	add	a5,s4,s3
    80000540:	0007c503          	lbu	a0,0(a5)
    80000544:	1e050963          	beqz	a0,80000736 <printf+0x298>
    if(cx != '%'){
    80000548:	ff5515e3          	bne	a0,s5,80000532 <printf+0x94>
    i++;
    8000054c:	0019849b          	addw	s1,s3,1
    c0 = fmt[i+0] & 0xff;
    80000550:	009a07b3          	add	a5,s4,s1
    80000554:	0007c903          	lbu	s2,0(a5)
    if(c0) c1 = fmt[i+1] & 0xff;
    80000558:	1c090f63          	beqz	s2,80000736 <printf+0x298>
    8000055c:	0017c783          	lbu	a5,1(a5)
    c1 = c2 = 0;
    80000560:	86be                	mv	a3,a5
    if(c1) c2 = fmt[i+2] & 0xff;
    80000562:	c789                	beqz	a5,8000056c <printf+0xce>
    80000564:	009a0733          	add	a4,s4,s1
    80000568:	00274683          	lbu	a3,2(a4)
    if(c0 == 'd'){
    8000056c:	03690763          	beq	s2,s6,8000059a <printf+0xfc>
    } else if(c0 == 'l' && c1 == 'd'){
    80000570:	05890163          	beq	s2,s8,800005b2 <printf+0x114>
    } else if(c0 == 'u'){
    80000574:	0d990b63          	beq	s2,s9,8000064a <printf+0x1ac>
    } else if(c0 == 'x'){
    80000578:	13a90163          	beq	s2,s10,8000069a <printf+0x1fc>
    } else if(c0 == 'p'){
    8000057c:	13b90b63          	beq	s2,s11,800006b2 <printf+0x214>
    } else if(c0 == 's'){
    80000580:	07300793          	li	a5,115
    80000584:	16f90863          	beq	s2,a5,800006f4 <printf+0x256>
    } else if(c0 == '%'){
    80000588:	1b590263          	beq	s2,s5,8000072c <printf+0x28e>
      consputc('%');
    8000058c:	8556                	mv	a0,s5
    8000058e:	c97ff0ef          	jal	80000224 <consputc>
      consputc(c0);
    80000592:	854a                	mv	a0,s2
    80000594:	c91ff0ef          	jal	80000224 <consputc>
    80000598:	b745                	j	80000538 <printf+0x9a>
      printint(va_arg(ap, int), 10, 1);
    8000059a:	f8843783          	ld	a5,-120(s0)
    8000059e:	00878713          	add	a4,a5,8
    800005a2:	f8e43423          	sd	a4,-120(s0)
    800005a6:	4605                	li	a2,1
    800005a8:	45a9                	li	a1,10
    800005aa:	4388                	lw	a0,0(a5)
    800005ac:	e61ff0ef          	jal	8000040c <printint>
    800005b0:	b761                	j	80000538 <printf+0x9a>
    } else if(c0 == 'l' && c1 == 'd'){
    800005b2:	03678663          	beq	a5,s6,800005de <printf+0x140>
    } else if(c0 == 'l' && c1 == 'l' && c2 == 'd'){
    800005b6:	05878263          	beq	a5,s8,800005fa <printf+0x15c>
    } else if(c0 == 'l' && c1 == 'u'){
    800005ba:	0b978463          	beq	a5,s9,80000662 <printf+0x1c4>
    } else if(c0 == 'l' && c1 == 'x'){
    800005be:	fda797e3          	bne	a5,s10,8000058c <printf+0xee>
      printint(va_arg(ap, uint64), 16, 0);
    800005c2:	f8843783          	ld	a5,-120(s0)
    800005c6:	00878713          	add	a4,a5,8
    800005ca:	f8e43423          	sd	a4,-120(s0)
    800005ce:	4601                	li	a2,0
    800005d0:	45c1                	li	a1,16
    800005d2:	6388                	ld	a0,0(a5)
    800005d4:	e39ff0ef          	jal	8000040c <printint>
      i += 1;
    800005d8:	0029849b          	addw	s1,s3,2
    800005dc:	bfb1                	j	80000538 <printf+0x9a>
      printint(va_arg(ap, uint64), 10, 1);
    800005de:	f8843783          	ld	a5,-120(s0)
    800005e2:	00878713          	add	a4,a5,8
    800005e6:	f8e43423          	sd	a4,-120(s0)
    800005ea:	4605                	li	a2,1
    800005ec:	45a9                	li	a1,10
    800005ee:	6388                	ld	a0,0(a5)
    800005f0:	e1dff0ef          	jal	8000040c <printint>
      i += 1;
    800005f4:	0029849b          	addw	s1,s3,2
    800005f8:	b781                	j	80000538 <printf+0x9a>
    } else if(c0 == 'l' && c1 == 'l' && c2 == 'd'){
    800005fa:	06400793          	li	a5,100
    800005fe:	02f68863          	beq	a3,a5,8000062e <printf+0x190>
    } else if(c0 == 'l' && c1 == 'l' && c2 == 'u'){
    80000602:	07500793          	li	a5,117
    80000606:	06f68c63          	beq	a3,a5,8000067e <printf+0x1e0>
    } else if(c0 == 'l' && c1 == 'l' && c2 == 'x'){
    8000060a:	07800793          	li	a5,120
    8000060e:	f6f69fe3          	bne	a3,a5,8000058c <printf+0xee>
      printint(va_arg(ap, uint64), 16, 0);
    80000612:	f8843783          	ld	a5,-120(s0)
    80000616:	00878713          	add	a4,a5,8
    8000061a:	f8e43423          	sd	a4,-120(s0)
    8000061e:	4601                	li	a2,0
    80000620:	45c1                	li	a1,16
    80000622:	6388                	ld	a0,0(a5)
    80000624:	de9ff0ef          	jal	8000040c <printint>
      i += 2;
    80000628:	0039849b          	addw	s1,s3,3
    8000062c:	b731                	j	80000538 <printf+0x9a>
      printint(va_arg(ap, uint64), 10, 1);
    8000062e:	f8843783          	ld	a5,-120(s0)
    80000632:	00878713          	add	a4,a5,8
    80000636:	f8e43423          	sd	a4,-120(s0)
    8000063a:	4605                	li	a2,1
    8000063c:	45a9                	li	a1,10
    8000063e:	6388                	ld	a0,0(a5)
    80000640:	dcdff0ef          	jal	8000040c <printint>
      i += 2;
    80000644:	0039849b          	addw	s1,s3,3
    80000648:	bdc5                	j	80000538 <printf+0x9a>
      printint(va_arg(ap, int), 10, 0);
    8000064a:	f8843783          	ld	a5,-120(s0)
    8000064e:	00878713          	add	a4,a5,8
    80000652:	f8e43423          	sd	a4,-120(s0)
    80000656:	4601                	li	a2,0
    80000658:	45a9                	li	a1,10
    8000065a:	4388                	lw	a0,0(a5)
    8000065c:	db1ff0ef          	jal	8000040c <printint>
    80000660:	bde1                	j	80000538 <printf+0x9a>
      printint(va_arg(ap, uint64), 10, 0);
    80000662:	f8843783          	ld	a5,-120(s0)
    80000666:	00878713          	add	a4,a5,8
    8000066a:	f8e43423          	sd	a4,-120(s0)
    8000066e:	4601                	li	a2,0
    80000670:	45a9                	li	a1,10
    80000672:	6388                	ld	a0,0(a5)
    80000674:	d99ff0ef          	jal	8000040c <printint>
      i += 1;
    80000678:	0029849b          	addw	s1,s3,2
    8000067c:	bd75                	j	80000538 <printf+0x9a>
      printint(va_arg(ap, uint64), 10, 0);
    8000067e:	f8843783          	ld	a5,-120(s0)
    80000682:	00878713          	add	a4,a5,8
    80000686:	f8e43423          	sd	a4,-120(s0)
    8000068a:	4601                	li	a2,0
    8000068c:	45a9                	li	a1,10
    8000068e:	6388                	ld	a0,0(a5)
    80000690:	d7dff0ef          	jal	8000040c <printint>
      i += 2;
    80000694:	0039849b          	addw	s1,s3,3
    80000698:	b545                	j	80000538 <printf+0x9a>
      printint(va_arg(ap, int), 16, 0);
    8000069a:	f8843783          	ld	a5,-120(s0)
    8000069e:	00878713          	add	a4,a5,8
    800006a2:	f8e43423          	sd	a4,-120(s0)
    800006a6:	4601                	li	a2,0
    800006a8:	45c1                	li	a1,16
    800006aa:	4388                	lw	a0,0(a5)
    800006ac:	d61ff0ef          	jal	8000040c <printint>
    800006b0:	b561                	j	80000538 <printf+0x9a>
      printptr(va_arg(ap, uint64));
    800006b2:	f8843783          	ld	a5,-120(s0)
    800006b6:	00878713          	add	a4,a5,8
    800006ba:	f8e43423          	sd	a4,-120(s0)
    800006be:	0007b983          	ld	s3,0(a5)
  consputc('0');
    800006c2:	03000513          	li	a0,48
    800006c6:	b5fff0ef          	jal	80000224 <consputc>
  consputc('x');
    800006ca:	07800513          	li	a0,120
    800006ce:	b57ff0ef          	jal	80000224 <consputc>
    800006d2:	4941                	li	s2,16
    consputc(digits[x >> (sizeof(uint64) * 8 - 4)]);
    800006d4:	00007b97          	auipc	s7,0x7
    800006d8:	964b8b93          	add	s7,s7,-1692 # 80007038 <digits>
    800006dc:	03c9d793          	srl	a5,s3,0x3c
    800006e0:	97de                	add	a5,a5,s7
    800006e2:	0007c503          	lbu	a0,0(a5)
    800006e6:	b3fff0ef          	jal	80000224 <consputc>
  for (i = 0; i < (sizeof(uint64) * 2); i++, x <<= 4)
    800006ea:	0992                	sll	s3,s3,0x4
    800006ec:	397d                	addw	s2,s2,-1
    800006ee:	fe0917e3          	bnez	s2,800006dc <printf+0x23e>
    800006f2:	b599                	j	80000538 <printf+0x9a>
      if((s = va_arg(ap, char*)) == 0)
    800006f4:	f8843783          	ld	a5,-120(s0)
    800006f8:	00878713          	add	a4,a5,8
    800006fc:	f8e43423          	sd	a4,-120(s0)
    80000700:	0007b903          	ld	s2,0(a5)
    80000704:	00090d63          	beqz	s2,8000071e <printf+0x280>
      for(; *s; s++)
    80000708:	00094503          	lbu	a0,0(s2)
    8000070c:	e20506e3          	beqz	a0,80000538 <printf+0x9a>
        consputc(*s);
    80000710:	b15ff0ef          	jal	80000224 <consputc>
      for(; *s; s++)
    80000714:	0905                	add	s2,s2,1
    80000716:	00094503          	lbu	a0,0(s2)
    8000071a:	f97d                	bnez	a0,80000710 <printf+0x272>
    8000071c:	bd31                	j	80000538 <printf+0x9a>
        s = "(null)";
    8000071e:	00007917          	auipc	s2,0x7
    80000722:	8fa90913          	add	s2,s2,-1798 # 80007018 <etext+0x18>
      for(; *s; s++)
    80000726:	02800513          	li	a0,40
    8000072a:	b7dd                	j	80000710 <printf+0x272>
      consputc('%');
    8000072c:	02500513          	li	a0,37
    80000730:	af5ff0ef          	jal	80000224 <consputc>
    80000734:	b511                	j	80000538 <printf+0x9a>
  if(locking)
    80000736:	f7843783          	ld	a5,-136(s0)
    8000073a:	de0795e3          	bnez	a5,80000524 <printf+0x86>

  return 0;
}
    8000073e:	4501                	li	a0,0
    80000740:	60aa                	ld	ra,136(sp)
    80000742:	640a                	ld	s0,128(sp)
    80000744:	74e6                	ld	s1,120(sp)
    80000746:	7946                	ld	s2,112(sp)
    80000748:	79a6                	ld	s3,104(sp)
    8000074a:	7a06                	ld	s4,96(sp)
    8000074c:	6ae6                	ld	s5,88(sp)
    8000074e:	6b46                	ld	s6,80(sp)
    80000750:	6ba6                	ld	s7,72(sp)
    80000752:	6c06                	ld	s8,64(sp)
    80000754:	7ce2                	ld	s9,56(sp)
    80000756:	7d42                	ld	s10,48(sp)
    80000758:	7da2                	ld	s11,40(sp)
    8000075a:	6169                	add	sp,sp,208
    8000075c:	8082                	ret

000000008000075e <panic>:

void
panic(char *s)
{
    8000075e:	1101                	add	sp,sp,-32
    80000760:	ec06                	sd	ra,24(sp)
    80000762:	e822                	sd	s0,16(sp)
    80000764:	e426                	sd	s1,8(sp)
    80000766:	1000                	add	s0,sp,32
    80000768:	84aa                	mv	s1,a0
  pr.locking = 0;
    8000076a:	0000f797          	auipc	a5,0xf
    8000076e:	3e07a323          	sw	zero,998(a5) # 8000fb50 <pr+0x18>
  printf("panic: ");
    80000772:	00007517          	auipc	a0,0x7
    80000776:	8ae50513          	add	a0,a0,-1874 # 80007020 <etext+0x20>
    8000077a:	d25ff0ef          	jal	8000049e <printf>
  printf("%s\n", s);
    8000077e:	85a6                	mv	a1,s1
    80000780:	00007517          	auipc	a0,0x7
    80000784:	8a850513          	add	a0,a0,-1880 # 80007028 <etext+0x28>
    80000788:	d17ff0ef          	jal	8000049e <printf>
  panicked = 1; /* freeze uart output from other CPUs */
    8000078c:	4785                	li	a5,1
    8000078e:	00007717          	auipc	a4,0x7
    80000792:	2cf72123          	sw	a5,706(a4) # 80007a50 <panicked>
  for(;;)
    80000796:	a001                	j	80000796 <panic+0x38>

0000000080000798 <printfinit>:
    ;
}

void
printfinit(void)
{
    80000798:	1101                	add	sp,sp,-32
    8000079a:	ec06                	sd	ra,24(sp)
    8000079c:	e822                	sd	s0,16(sp)
    8000079e:	e426                	sd	s1,8(sp)
    800007a0:	1000                	add	s0,sp,32
  initlock(&pr.lock, "pr");
    800007a2:	0000f497          	auipc	s1,0xf
    800007a6:	39648493          	add	s1,s1,918 # 8000fb38 <pr>
    800007aa:	00007597          	auipc	a1,0x7
    800007ae:	88658593          	add	a1,a1,-1914 # 80007030 <etext+0x30>
    800007b2:	8526                	mv	a0,s1
    800007b4:	36c000ef          	jal	80000b20 <initlock>
  pr.locking = 1;
    800007b8:	4785                	li	a5,1
    800007ba:	cc9c                	sw	a5,24(s1)
}
    800007bc:	60e2                	ld	ra,24(sp)
    800007be:	6442                	ld	s0,16(sp)
    800007c0:	64a2                	ld	s1,8(sp)
    800007c2:	6105                	add	sp,sp,32
    800007c4:	8082                	ret

00000000800007c6 <uartinit>:

void uartstart();

void
uartinit(void)
{
    800007c6:	1141                	add	sp,sp,-16
    800007c8:	e406                	sd	ra,8(sp)
    800007ca:	e022                	sd	s0,0(sp)
    800007cc:	0800                	add	s0,sp,16
  /* disable interrupts. */
  WriteReg(IER, 0x00);
    800007ce:	100007b7          	lui	a5,0x10000
    800007d2:	000780a3          	sb	zero,1(a5) # 10000001 <_entry-0x6fffffff>

  /* special mode to set baud rate. */
  WriteReg(LCR, LCR_BAUD_LATCH);
    800007d6:	f8000713          	li	a4,-128
    800007da:	00e781a3          	sb	a4,3(a5)

  /* LSB for baud rate of 38.4K. */
  WriteReg(0, 0x03);
    800007de:	470d                	li	a4,3
    800007e0:	00e78023          	sb	a4,0(a5)

  /* MSB for baud rate of 38.4K. */
  WriteReg(1, 0x00);
    800007e4:	000780a3          	sb	zero,1(a5)

  /* leave set-baud mode, */
  /* and set word length to 8 bits, no parity. */
  WriteReg(LCR, LCR_EIGHT_BITS);
    800007e8:	00e781a3          	sb	a4,3(a5)

  /* reset and enable FIFOs. */
  WriteReg(FCR, FCR_FIFO_ENABLE | FCR_FIFO_CLEAR);
    800007ec:	469d                	li	a3,7
    800007ee:	00d78123          	sb	a3,2(a5)

  /* enable transmit and receive interrupts. */
  WriteReg(IER, IER_TX_ENABLE | IER_RX_ENABLE);
    800007f2:	00e780a3          	sb	a4,1(a5)

  initlock(&uart_tx_lock, "uart");
    800007f6:	00007597          	auipc	a1,0x7
    800007fa:	85a58593          	add	a1,a1,-1958 # 80007050 <digits+0x18>
    800007fe:	0000f517          	auipc	a0,0xf
    80000802:	35a50513          	add	a0,a0,858 # 8000fb58 <uart_tx_lock>
    80000806:	31a000ef          	jal	80000b20 <initlock>
}
    8000080a:	60a2                	ld	ra,8(sp)
    8000080c:	6402                	ld	s0,0(sp)
    8000080e:	0141                	add	sp,sp,16
    80000810:	8082                	ret

0000000080000812 <uartputc_sync>:
/* use interrupts, for use by kernel printf() and */
/* to echo characters. it spins waiting for the uart's */
/* output register to be empty. */
void
uartputc_sync(int c)
{
    80000812:	1101                	add	sp,sp,-32
    80000814:	ec06                	sd	ra,24(sp)
    80000816:	e822                	sd	s0,16(sp)
    80000818:	e426                	sd	s1,8(sp)
    8000081a:	1000                	add	s0,sp,32
    8000081c:	84aa                	mv	s1,a0
  push_off();
    8000081e:	342000ef          	jal	80000b60 <push_off>

  if(panicked){
    80000822:	00007797          	auipc	a5,0x7
    80000826:	22e7a783          	lw	a5,558(a5) # 80007a50 <panicked>
    for(;;)
      ;
  }

  /* wait for Transmit Holding Empty to be set in LSR. */
  while((ReadReg(LSR) & LSR_TX_IDLE) == 0)
    8000082a:	10000737          	lui	a4,0x10000
  if(panicked){
    8000082e:	c391                	beqz	a5,80000832 <uartputc_sync+0x20>
    for(;;)
    80000830:	a001                	j	80000830 <uartputc_sync+0x1e>
  while((ReadReg(LSR) & LSR_TX_IDLE) == 0)
    80000832:	00574783          	lbu	a5,5(a4) # 10000005 <_entry-0x6ffffffb>
    80000836:	0207f793          	and	a5,a5,32
    8000083a:	dfe5                	beqz	a5,80000832 <uartputc_sync+0x20>
    ;
  WriteReg(THR, c);
    8000083c:	0ff4f513          	zext.b	a0,s1
    80000840:	100007b7          	lui	a5,0x10000
    80000844:	00a78023          	sb	a0,0(a5) # 10000000 <_entry-0x70000000>

  pop_off();
    80000848:	39c000ef          	jal	80000be4 <pop_off>
}
    8000084c:	60e2                	ld	ra,24(sp)
    8000084e:	6442                	ld	s0,16(sp)
    80000850:	64a2                	ld	s1,8(sp)
    80000852:	6105                	add	sp,sp,32
    80000854:	8082                	ret

0000000080000856 <uartstart>:
/* called from both the top- and bottom-half. */
void
uartstart()
{
  while(1){
    if(uart_tx_w == uart_tx_r){
    80000856:	00007797          	auipc	a5,0x7
    8000085a:	2027b783          	ld	a5,514(a5) # 80007a58 <uart_tx_r>
    8000085e:	00007717          	auipc	a4,0x7
    80000862:	20273703          	ld	a4,514(a4) # 80007a60 <uart_tx_w>
    80000866:	06f70c63          	beq	a4,a5,800008de <uartstart+0x88>
{
    8000086a:	7139                	add	sp,sp,-64
    8000086c:	fc06                	sd	ra,56(sp)
    8000086e:	f822                	sd	s0,48(sp)
    80000870:	f426                	sd	s1,40(sp)
    80000872:	f04a                	sd	s2,32(sp)
    80000874:	ec4e                	sd	s3,24(sp)
    80000876:	e852                	sd	s4,16(sp)
    80000878:	e456                	sd	s5,8(sp)
    8000087a:	0080                	add	s0,sp,64
      /* transmit buffer is empty. */
      ReadReg(ISR);
      return;
    }
    
    if((ReadReg(LSR) & LSR_TX_IDLE) == 0){
    8000087c:	10000937          	lui	s2,0x10000
      /* so we cannot give it another byte. */
      /* it will interrupt when it's ready for a new byte. */
      return;
    }
    
    int c = uart_tx_buf[uart_tx_r % UART_TX_BUF_SIZE];
    80000880:	0000fa17          	auipc	s4,0xf
    80000884:	2d8a0a13          	add	s4,s4,728 # 8000fb58 <uart_tx_lock>
    uart_tx_r += 1;
    80000888:	00007497          	auipc	s1,0x7
    8000088c:	1d048493          	add	s1,s1,464 # 80007a58 <uart_tx_r>
    if(uart_tx_w == uart_tx_r){
    80000890:	00007997          	auipc	s3,0x7
    80000894:	1d098993          	add	s3,s3,464 # 80007a60 <uart_tx_w>
    if((ReadReg(LSR) & LSR_TX_IDLE) == 0){
    80000898:	00594703          	lbu	a4,5(s2) # 10000005 <_entry-0x6ffffffb>
    8000089c:	02077713          	and	a4,a4,32
    800008a0:	c715                	beqz	a4,800008cc <uartstart+0x76>
    int c = uart_tx_buf[uart_tx_r % UART_TX_BUF_SIZE];
    800008a2:	01f7f713          	and	a4,a5,31
    800008a6:	9752                	add	a4,a4,s4
    800008a8:	01874a83          	lbu	s5,24(a4)
    uart_tx_r += 1;
    800008ac:	0785                	add	a5,a5,1
    800008ae:	e09c                	sd	a5,0(s1)
    
    /* maybe uartputc() is waiting for space in the buffer. */
    wakeup(&uart_tx_r);
    800008b0:	8526                	mv	a0,s1
    800008b2:	5a2010ef          	jal	80001e54 <wakeup>
    
    WriteReg(THR, c);
    800008b6:	01590023          	sb	s5,0(s2)
    if(uart_tx_w == uart_tx_r){
    800008ba:	609c                	ld	a5,0(s1)
    800008bc:	0009b703          	ld	a4,0(s3)
    800008c0:	fcf71ce3          	bne	a4,a5,80000898 <uartstart+0x42>
      ReadReg(ISR);
    800008c4:	100007b7          	lui	a5,0x10000
    800008c8:	0027c783          	lbu	a5,2(a5) # 10000002 <_entry-0x6ffffffe>
  }
}
    800008cc:	70e2                	ld	ra,56(sp)
    800008ce:	7442                	ld	s0,48(sp)
    800008d0:	74a2                	ld	s1,40(sp)
    800008d2:	7902                	ld	s2,32(sp)
    800008d4:	69e2                	ld	s3,24(sp)
    800008d6:	6a42                	ld	s4,16(sp)
    800008d8:	6aa2                	ld	s5,8(sp)
    800008da:	6121                	add	sp,sp,64
    800008dc:	8082                	ret
      ReadReg(ISR);
    800008de:	100007b7          	lui	a5,0x10000
    800008e2:	0027c783          	lbu	a5,2(a5) # 10000002 <_entry-0x6ffffffe>
      return;
    800008e6:	8082                	ret

00000000800008e8 <uartputc>:
{
    800008e8:	7179                	add	sp,sp,-48
    800008ea:	f406                	sd	ra,40(sp)
    800008ec:	f022                	sd	s0,32(sp)
    800008ee:	ec26                	sd	s1,24(sp)
    800008f0:	e84a                	sd	s2,16(sp)
    800008f2:	e44e                	sd	s3,8(sp)
    800008f4:	e052                	sd	s4,0(sp)
    800008f6:	1800                	add	s0,sp,48
    800008f8:	8a2a                	mv	s4,a0
  acquire(&uart_tx_lock);
    800008fa:	0000f517          	auipc	a0,0xf
    800008fe:	25e50513          	add	a0,a0,606 # 8000fb58 <uart_tx_lock>
    80000902:	29e000ef          	jal	80000ba0 <acquire>
  if(panicked){
    80000906:	00007797          	auipc	a5,0x7
    8000090a:	14a7a783          	lw	a5,330(a5) # 80007a50 <panicked>
    8000090e:	efbd                	bnez	a5,8000098c <uartputc+0xa4>
  while(uart_tx_w == uart_tx_r + UART_TX_BUF_SIZE){
    80000910:	00007717          	auipc	a4,0x7
    80000914:	15073703          	ld	a4,336(a4) # 80007a60 <uart_tx_w>
    80000918:	00007797          	auipc	a5,0x7
    8000091c:	1407b783          	ld	a5,320(a5) # 80007a58 <uart_tx_r>
    80000920:	02078793          	add	a5,a5,32
    sleep(&uart_tx_r, &uart_tx_lock);
    80000924:	0000f997          	auipc	s3,0xf
    80000928:	23498993          	add	s3,s3,564 # 8000fb58 <uart_tx_lock>
    8000092c:	00007497          	auipc	s1,0x7
    80000930:	12c48493          	add	s1,s1,300 # 80007a58 <uart_tx_r>
  while(uart_tx_w == uart_tx_r + UART_TX_BUF_SIZE){
    80000934:	00007917          	auipc	s2,0x7
    80000938:	12c90913          	add	s2,s2,300 # 80007a60 <uart_tx_w>
    8000093c:	00e79d63          	bne	a5,a4,80000956 <uartputc+0x6e>
    sleep(&uart_tx_r, &uart_tx_lock);
    80000940:	85ce                	mv	a1,s3
    80000942:	8526                	mv	a0,s1
    80000944:	4c4010ef          	jal	80001e08 <sleep>
  while(uart_tx_w == uart_tx_r + UART_TX_BUF_SIZE){
    80000948:	00093703          	ld	a4,0(s2)
    8000094c:	609c                	ld	a5,0(s1)
    8000094e:	02078793          	add	a5,a5,32
    80000952:	fee787e3          	beq	a5,a4,80000940 <uartputc+0x58>
  uart_tx_buf[uart_tx_w % UART_TX_BUF_SIZE] = c;
    80000956:	0000f497          	auipc	s1,0xf
    8000095a:	20248493          	add	s1,s1,514 # 8000fb58 <uart_tx_lock>
    8000095e:	01f77793          	and	a5,a4,31
    80000962:	97a6                	add	a5,a5,s1
    80000964:	01478c23          	sb	s4,24(a5)
  uart_tx_w += 1;
    80000968:	0705                	add	a4,a4,1
    8000096a:	00007797          	auipc	a5,0x7
    8000096e:	0ee7bb23          	sd	a4,246(a5) # 80007a60 <uart_tx_w>
  uartstart();
    80000972:	ee5ff0ef          	jal	80000856 <uartstart>
  release(&uart_tx_lock);
    80000976:	8526                	mv	a0,s1
    80000978:	2c0000ef          	jal	80000c38 <release>
}
    8000097c:	70a2                	ld	ra,40(sp)
    8000097e:	7402                	ld	s0,32(sp)
    80000980:	64e2                	ld	s1,24(sp)
    80000982:	6942                	ld	s2,16(sp)
    80000984:	69a2                	ld	s3,8(sp)
    80000986:	6a02                	ld	s4,0(sp)
    80000988:	6145                	add	sp,sp,48
    8000098a:	8082                	ret
    for(;;)
    8000098c:	a001                	j	8000098c <uartputc+0xa4>

000000008000098e <uartgetc>:

/* read one input character from the UART. */
/* return -1 if none is waiting. */
int
uartgetc(void)
{
    8000098e:	1141                	add	sp,sp,-16
    80000990:	e422                	sd	s0,8(sp)
    80000992:	0800                	add	s0,sp,16
  if(ReadReg(LSR) & 0x01){
    80000994:	100007b7          	lui	a5,0x10000
    80000998:	0057c783          	lbu	a5,5(a5) # 10000005 <_entry-0x6ffffffb>
    8000099c:	8b85                	and	a5,a5,1
    8000099e:	cb81                	beqz	a5,800009ae <uartgetc+0x20>
    /* input data is ready. */
    return ReadReg(RHR);
    800009a0:	100007b7          	lui	a5,0x10000
    800009a4:	0007c503          	lbu	a0,0(a5) # 10000000 <_entry-0x70000000>
  } else {
    return -1;
  }
}
    800009a8:	6422                	ld	s0,8(sp)
    800009aa:	0141                	add	sp,sp,16
    800009ac:	8082                	ret
    return -1;
    800009ae:	557d                	li	a0,-1
    800009b0:	bfe5                	j	800009a8 <uartgetc+0x1a>

00000000800009b2 <uartintr>:
/* handle a uart interrupt, raised because input has */
/* arrived, or the uart is ready for more output, or */
/* both. called from devintr(). */
void
uartintr(void)
{
    800009b2:	1101                	add	sp,sp,-32
    800009b4:	ec06                	sd	ra,24(sp)
    800009b6:	e822                	sd	s0,16(sp)
    800009b8:	e426                	sd	s1,8(sp)
    800009ba:	1000                	add	s0,sp,32
  /* read and process incoming characters. */
  while(1){
    int c = uartgetc();
    if(c == -1)
    800009bc:	54fd                	li	s1,-1
    800009be:	a019                	j	800009c4 <uartintr+0x12>
      break;
    consoleintr(c);
    800009c0:	897ff0ef          	jal	80000256 <consoleintr>
    int c = uartgetc();
    800009c4:	fcbff0ef          	jal	8000098e <uartgetc>
    if(c == -1)
    800009c8:	fe951ce3          	bne	a0,s1,800009c0 <uartintr+0xe>
  }

  /* send buffered characters. */
  acquire(&uart_tx_lock);
    800009cc:	0000f497          	auipc	s1,0xf
    800009d0:	18c48493          	add	s1,s1,396 # 8000fb58 <uart_tx_lock>
    800009d4:	8526                	mv	a0,s1
    800009d6:	1ca000ef          	jal	80000ba0 <acquire>
  uartstart();
    800009da:	e7dff0ef          	jal	80000856 <uartstart>
  release(&uart_tx_lock);
    800009de:	8526                	mv	a0,s1
    800009e0:	258000ef          	jal	80000c38 <release>
}
    800009e4:	60e2                	ld	ra,24(sp)
    800009e6:	6442                	ld	s0,16(sp)
    800009e8:	64a2                	ld	s1,8(sp)
    800009ea:	6105                	add	sp,sp,32
    800009ec:	8082                	ret

00000000800009ee <kfree>:
/* which normally should have been returned by a */
/* call to kalloc().  (The exception is when */
/* initializing the allocator; see kinit above.) */
void
kfree(void *pa)
{
    800009ee:	1101                	add	sp,sp,-32
    800009f0:	ec06                	sd	ra,24(sp)
    800009f2:	e822                	sd	s0,16(sp)
    800009f4:	e426                	sd	s1,8(sp)
    800009f6:	e04a                	sd	s2,0(sp)
    800009f8:	1000                	add	s0,sp,32
  struct run *r;

  if(((uint64)pa % PGSIZE) != 0 || (char*)pa < end || (uint64)pa >= PHYSTOP)
    800009fa:	03451793          	sll	a5,a0,0x34
    800009fe:	e7a9                	bnez	a5,80000a48 <kfree+0x5a>
    80000a00:	84aa                	mv	s1,a0
    80000a02:	00020797          	auipc	a5,0x20
    80000a06:	5be78793          	add	a5,a5,1470 # 80020fc0 <end>
    80000a0a:	02f56f63          	bltu	a0,a5,80000a48 <kfree+0x5a>
    80000a0e:	47c5                	li	a5,17
    80000a10:	07ee                	sll	a5,a5,0x1b
    80000a12:	02f57b63          	bgeu	a0,a5,80000a48 <kfree+0x5a>
    panic("kfree");

  /* Fill with junk to catch dangling refs. */
  memset(pa, 1, PGSIZE);
    80000a16:	6605                	lui	a2,0x1
    80000a18:	4585                	li	a1,1
    80000a1a:	25a000ef          	jal	80000c74 <memset>

  r = (struct run*)pa;

  acquire(&kmem.lock);
    80000a1e:	0000f917          	auipc	s2,0xf
    80000a22:	17290913          	add	s2,s2,370 # 8000fb90 <kmem>
    80000a26:	854a                	mv	a0,s2
    80000a28:	178000ef          	jal	80000ba0 <acquire>
  r->next = kmem.freelist;
    80000a2c:	01893783          	ld	a5,24(s2)
    80000a30:	e09c                	sd	a5,0(s1)
  kmem.freelist = r;
    80000a32:	00993c23          	sd	s1,24(s2)
  release(&kmem.lock);
    80000a36:	854a                	mv	a0,s2
    80000a38:	200000ef          	jal	80000c38 <release>
}
    80000a3c:	60e2                	ld	ra,24(sp)
    80000a3e:	6442                	ld	s0,16(sp)
    80000a40:	64a2                	ld	s1,8(sp)
    80000a42:	6902                	ld	s2,0(sp)
    80000a44:	6105                	add	sp,sp,32
    80000a46:	8082                	ret
    panic("kfree");
    80000a48:	00006517          	auipc	a0,0x6
    80000a4c:	61050513          	add	a0,a0,1552 # 80007058 <digits+0x20>
    80000a50:	d0fff0ef          	jal	8000075e <panic>

0000000080000a54 <freerange>:
{
    80000a54:	7179                	add	sp,sp,-48
    80000a56:	f406                	sd	ra,40(sp)
    80000a58:	f022                	sd	s0,32(sp)
    80000a5a:	ec26                	sd	s1,24(sp)
    80000a5c:	e84a                	sd	s2,16(sp)
    80000a5e:	e44e                	sd	s3,8(sp)
    80000a60:	e052                	sd	s4,0(sp)
    80000a62:	1800                	add	s0,sp,48
  p = (char*)PGROUNDUP((uint64)pa_start);
    80000a64:	6785                	lui	a5,0x1
    80000a66:	fff78713          	add	a4,a5,-1 # fff <_entry-0x7ffff001>
    80000a6a:	00e504b3          	add	s1,a0,a4
    80000a6e:	777d                	lui	a4,0xfffff
    80000a70:	8cf9                	and	s1,s1,a4
  for(; p + PGSIZE <= (char*)pa_end; p += PGSIZE)
    80000a72:	94be                	add	s1,s1,a5
    80000a74:	0095ec63          	bltu	a1,s1,80000a8c <freerange+0x38>
    80000a78:	892e                	mv	s2,a1
    kfree(p);
    80000a7a:	7a7d                	lui	s4,0xfffff
  for(; p + PGSIZE <= (char*)pa_end; p += PGSIZE)
    80000a7c:	6985                	lui	s3,0x1
    kfree(p);
    80000a7e:	01448533          	add	a0,s1,s4
    80000a82:	f6dff0ef          	jal	800009ee <kfree>
  for(; p + PGSIZE <= (char*)pa_end; p += PGSIZE)
    80000a86:	94ce                	add	s1,s1,s3
    80000a88:	fe997be3          	bgeu	s2,s1,80000a7e <freerange+0x2a>
}
    80000a8c:	70a2                	ld	ra,40(sp)
    80000a8e:	7402                	ld	s0,32(sp)
    80000a90:	64e2                	ld	s1,24(sp)
    80000a92:	6942                	ld	s2,16(sp)
    80000a94:	69a2                	ld	s3,8(sp)
    80000a96:	6a02                	ld	s4,0(sp)
    80000a98:	6145                	add	sp,sp,48
    80000a9a:	8082                	ret

0000000080000a9c <kinit>:
{
    80000a9c:	1141                	add	sp,sp,-16
    80000a9e:	e406                	sd	ra,8(sp)
    80000aa0:	e022                	sd	s0,0(sp)
    80000aa2:	0800                	add	s0,sp,16
  initlock(&kmem.lock, "kmem");
    80000aa4:	00006597          	auipc	a1,0x6
    80000aa8:	5bc58593          	add	a1,a1,1468 # 80007060 <digits+0x28>
    80000aac:	0000f517          	auipc	a0,0xf
    80000ab0:	0e450513          	add	a0,a0,228 # 8000fb90 <kmem>
    80000ab4:	06c000ef          	jal	80000b20 <initlock>
  freerange(end, (void*)PHYSTOP);
    80000ab8:	45c5                	li	a1,17
    80000aba:	05ee                	sll	a1,a1,0x1b
    80000abc:	00020517          	auipc	a0,0x20
    80000ac0:	50450513          	add	a0,a0,1284 # 80020fc0 <end>
    80000ac4:	f91ff0ef          	jal	80000a54 <freerange>
}
    80000ac8:	60a2                	ld	ra,8(sp)
    80000aca:	6402                	ld	s0,0(sp)
    80000acc:	0141                	add	sp,sp,16
    80000ace:	8082                	ret

0000000080000ad0 <kalloc>:
/* Allocate one 4096-byte page of physical memory. */
/* Returns a pointer that the kernel can use. */
/* Returns 0 if the memory cannot be allocated. */
void *
kalloc(void)
{
    80000ad0:	1101                	add	sp,sp,-32
    80000ad2:	ec06                	sd	ra,24(sp)
    80000ad4:	e822                	sd	s0,16(sp)
    80000ad6:	e426                	sd	s1,8(sp)
    80000ad8:	1000                	add	s0,sp,32
  struct run *r;

  acquire(&kmem.lock);
    80000ada:	0000f497          	auipc	s1,0xf
    80000ade:	0b648493          	add	s1,s1,182 # 8000fb90 <kmem>
    80000ae2:	8526                	mv	a0,s1
    80000ae4:	0bc000ef          	jal	80000ba0 <acquire>
  r = kmem.freelist;
    80000ae8:	6c84                	ld	s1,24(s1)
  if(r)
    80000aea:	c485                	beqz	s1,80000b12 <kalloc+0x42>
    kmem.freelist = r->next;
    80000aec:	609c                	ld	a5,0(s1)
    80000aee:	0000f517          	auipc	a0,0xf
    80000af2:	0a250513          	add	a0,a0,162 # 8000fb90 <kmem>
    80000af6:	ed1c                	sd	a5,24(a0)
  release(&kmem.lock);
    80000af8:	140000ef          	jal	80000c38 <release>

  if(r)
    memset((char*)r, 5, PGSIZE); /* fill with junk */
    80000afc:	6605                	lui	a2,0x1
    80000afe:	4595                	li	a1,5
    80000b00:	8526                	mv	a0,s1
    80000b02:	172000ef          	jal	80000c74 <memset>
  return (void*)r;
}
    80000b06:	8526                	mv	a0,s1
    80000b08:	60e2                	ld	ra,24(sp)
    80000b0a:	6442                	ld	s0,16(sp)
    80000b0c:	64a2                	ld	s1,8(sp)
    80000b0e:	6105                	add	sp,sp,32
    80000b10:	8082                	ret
  release(&kmem.lock);
    80000b12:	0000f517          	auipc	a0,0xf
    80000b16:	07e50513          	add	a0,a0,126 # 8000fb90 <kmem>
    80000b1a:	11e000ef          	jal	80000c38 <release>
  if(r)
    80000b1e:	b7e5                	j	80000b06 <kalloc+0x36>

0000000080000b20 <initlock>:
#include "proc.h"
#include "defs.h"

void
initlock(struct spinlock *lk, char *name)
{
    80000b20:	1141                	add	sp,sp,-16
    80000b22:	e422                	sd	s0,8(sp)
    80000b24:	0800                	add	s0,sp,16
  lk->name = name;
    80000b26:	e50c                	sd	a1,8(a0)
  lk->locked = 0;
    80000b28:	00052023          	sw	zero,0(a0)
  lk->cpu = 0;
    80000b2c:	00053823          	sd	zero,16(a0)
}
    80000b30:	6422                	ld	s0,8(sp)
    80000b32:	0141                	add	sp,sp,16
    80000b34:	8082                	ret

0000000080000b36 <holding>:
/* Interrupts must be off. */
int
holding(struct spinlock *lk)
{
  int r;
  r = (lk->locked && lk->cpu == mycpu());
    80000b36:	411c                	lw	a5,0(a0)
    80000b38:	e399                	bnez	a5,80000b3e <holding+0x8>
    80000b3a:	4501                	li	a0,0
  return r;
}
    80000b3c:	8082                	ret
{
    80000b3e:	1101                	add	sp,sp,-32
    80000b40:	ec06                	sd	ra,24(sp)
    80000b42:	e822                	sd	s0,16(sp)
    80000b44:	e426                	sd	s1,8(sp)
    80000b46:	1000                	add	s0,sp,32
  r = (lk->locked && lk->cpu == mycpu());
    80000b48:	6904                	ld	s1,16(a0)
    80000b4a:	4cb000ef          	jal	80001814 <mycpu>
    80000b4e:	40a48533          	sub	a0,s1,a0
    80000b52:	00153513          	seqz	a0,a0
}
    80000b56:	60e2                	ld	ra,24(sp)
    80000b58:	6442                	ld	s0,16(sp)
    80000b5a:	64a2                	ld	s1,8(sp)
    80000b5c:	6105                	add	sp,sp,32
    80000b5e:	8082                	ret

0000000080000b60 <push_off>:
/* it takes two pop_off()s to undo two push_off()s.  Also, if interrupts */
/* are initially off, then push_off, pop_off leaves them off. */

void
push_off(void)
{
    80000b60:	1101                	add	sp,sp,-32
    80000b62:	ec06                	sd	ra,24(sp)
    80000b64:	e822                	sd	s0,16(sp)
    80000b66:	e426                	sd	s1,8(sp)
    80000b68:	1000                	add	s0,sp,32
  asm volatile("csrr %0, sstatus" : "=r" (x) );
    80000b6a:	100024f3          	csrr	s1,sstatus
    80000b6e:	100027f3          	csrr	a5,sstatus
  w_sstatus(r_sstatus() & ~SSTATUS_SIE);
    80000b72:	9bf5                	and	a5,a5,-3
  asm volatile("csrw sstatus, %0" : : "r" (x));
    80000b74:	10079073          	csrw	sstatus,a5
  int old = intr_get();

  intr_off();
  if(mycpu()->noff == 0)
    80000b78:	49d000ef          	jal	80001814 <mycpu>
    80000b7c:	5d3c                	lw	a5,120(a0)
    80000b7e:	cb99                	beqz	a5,80000b94 <push_off+0x34>
    mycpu()->intena = old;
  mycpu()->noff += 1;
    80000b80:	495000ef          	jal	80001814 <mycpu>
    80000b84:	5d3c                	lw	a5,120(a0)
    80000b86:	2785                	addw	a5,a5,1
    80000b88:	dd3c                	sw	a5,120(a0)
}
    80000b8a:	60e2                	ld	ra,24(sp)
    80000b8c:	6442                	ld	s0,16(sp)
    80000b8e:	64a2                	ld	s1,8(sp)
    80000b90:	6105                	add	sp,sp,32
    80000b92:	8082                	ret
    mycpu()->intena = old;
    80000b94:	481000ef          	jal	80001814 <mycpu>
  return (x & SSTATUS_SIE) != 0;
    80000b98:	8085                	srl	s1,s1,0x1
    80000b9a:	8885                	and	s1,s1,1
    80000b9c:	dd64                	sw	s1,124(a0)
    80000b9e:	b7cd                	j	80000b80 <push_off+0x20>

0000000080000ba0 <acquire>:
{
    80000ba0:	1101                	add	sp,sp,-32
    80000ba2:	ec06                	sd	ra,24(sp)
    80000ba4:	e822                	sd	s0,16(sp)
    80000ba6:	e426                	sd	s1,8(sp)
    80000ba8:	1000                	add	s0,sp,32
    80000baa:	84aa                	mv	s1,a0
  push_off(); /* disable interrupts to avoid deadlock. */
    80000bac:	fb5ff0ef          	jal	80000b60 <push_off>
  if(holding(lk))
    80000bb0:	8526                	mv	a0,s1
    80000bb2:	f85ff0ef          	jal	80000b36 <holding>
  while(__sync_lock_test_and_set(&lk->locked, 1) != 0)
    80000bb6:	4705                	li	a4,1
  if(holding(lk))
    80000bb8:	e105                	bnez	a0,80000bd8 <acquire+0x38>
  while(__sync_lock_test_and_set(&lk->locked, 1) != 0)
    80000bba:	87ba                	mv	a5,a4
    80000bbc:	0cf4a7af          	amoswap.w.aq	a5,a5,(s1)
    80000bc0:	2781                	sext.w	a5,a5
    80000bc2:	ffe5                	bnez	a5,80000bba <acquire+0x1a>
  __sync_synchronize();
    80000bc4:	0ff0000f          	fence
  lk->cpu = mycpu();
    80000bc8:	44d000ef          	jal	80001814 <mycpu>
    80000bcc:	e888                	sd	a0,16(s1)
}
    80000bce:	60e2                	ld	ra,24(sp)
    80000bd0:	6442                	ld	s0,16(sp)
    80000bd2:	64a2                	ld	s1,8(sp)
    80000bd4:	6105                	add	sp,sp,32
    80000bd6:	8082                	ret
    panic("acquire");
    80000bd8:	00006517          	auipc	a0,0x6
    80000bdc:	49050513          	add	a0,a0,1168 # 80007068 <digits+0x30>
    80000be0:	b7fff0ef          	jal	8000075e <panic>

0000000080000be4 <pop_off>:

void
pop_off(void)
{
    80000be4:	1141                	add	sp,sp,-16
    80000be6:	e406                	sd	ra,8(sp)
    80000be8:	e022                	sd	s0,0(sp)
    80000bea:	0800                	add	s0,sp,16
  struct cpu *c = mycpu();
    80000bec:	429000ef          	jal	80001814 <mycpu>
  asm volatile("csrr %0, sstatus" : "=r" (x) );
    80000bf0:	100027f3          	csrr	a5,sstatus
  return (x & SSTATUS_SIE) != 0;
    80000bf4:	8b89                	and	a5,a5,2
  if(intr_get())
    80000bf6:	e78d                	bnez	a5,80000c20 <pop_off+0x3c>
    panic("pop_off - interruptible");
  if(c->noff < 1)
    80000bf8:	5d3c                	lw	a5,120(a0)
    80000bfa:	02f05963          	blez	a5,80000c2c <pop_off+0x48>
    panic("pop_off");
  c->noff -= 1;
    80000bfe:	37fd                	addw	a5,a5,-1
    80000c00:	0007871b          	sext.w	a4,a5
    80000c04:	dd3c                	sw	a5,120(a0)
  if(c->noff == 0 && c->intena)
    80000c06:	eb09                	bnez	a4,80000c18 <pop_off+0x34>
    80000c08:	5d7c                	lw	a5,124(a0)
    80000c0a:	c799                	beqz	a5,80000c18 <pop_off+0x34>
  asm volatile("csrr %0, sstatus" : "=r" (x) );
    80000c0c:	100027f3          	csrr	a5,sstatus
  w_sstatus(r_sstatus() | SSTATUS_SIE);
    80000c10:	0027e793          	or	a5,a5,2
  asm volatile("csrw sstatus, %0" : : "r" (x));
    80000c14:	10079073          	csrw	sstatus,a5
    intr_on();
}
    80000c18:	60a2                	ld	ra,8(sp)
    80000c1a:	6402                	ld	s0,0(sp)
    80000c1c:	0141                	add	sp,sp,16
    80000c1e:	8082                	ret
    panic("pop_off - interruptible");
    80000c20:	00006517          	auipc	a0,0x6
    80000c24:	45050513          	add	a0,a0,1104 # 80007070 <digits+0x38>
    80000c28:	b37ff0ef          	jal	8000075e <panic>
    panic("pop_off");
    80000c2c:	00006517          	auipc	a0,0x6
    80000c30:	45c50513          	add	a0,a0,1116 # 80007088 <digits+0x50>
    80000c34:	b2bff0ef          	jal	8000075e <panic>

0000000080000c38 <release>:
{
    80000c38:	1101                	add	sp,sp,-32
    80000c3a:	ec06                	sd	ra,24(sp)
    80000c3c:	e822                	sd	s0,16(sp)
    80000c3e:	e426                	sd	s1,8(sp)
    80000c40:	1000                	add	s0,sp,32
    80000c42:	84aa                	mv	s1,a0
  if(!holding(lk))
    80000c44:	ef3ff0ef          	jal	80000b36 <holding>
    80000c48:	c105                	beqz	a0,80000c68 <release+0x30>
  lk->cpu = 0;
    80000c4a:	0004b823          	sd	zero,16(s1)
  __sync_synchronize();
    80000c4e:	0ff0000f          	fence
  __sync_lock_release(&lk->locked);
    80000c52:	0f50000f          	fence	iorw,ow
    80000c56:	0804a02f          	amoswap.w	zero,zero,(s1)
  pop_off();
    80000c5a:	f8bff0ef          	jal	80000be4 <pop_off>
}
    80000c5e:	60e2                	ld	ra,24(sp)
    80000c60:	6442                	ld	s0,16(sp)
    80000c62:	64a2                	ld	s1,8(sp)
    80000c64:	6105                	add	sp,sp,32
    80000c66:	8082                	ret
    panic("release");
    80000c68:	00006517          	auipc	a0,0x6
    80000c6c:	42850513          	add	a0,a0,1064 # 80007090 <digits+0x58>
    80000c70:	aefff0ef          	jal	8000075e <panic>

0000000080000c74 <memset>:
#include "types.h"

void*
memset(void *dst, int c, uint n)
{
    80000c74:	1141                	add	sp,sp,-16
    80000c76:	e422                	sd	s0,8(sp)
    80000c78:	0800                	add	s0,sp,16
  char *cdst = (char *) dst;
  int i;
  for(i = 0; i < n; i++){
    80000c7a:	ca19                	beqz	a2,80000c90 <memset+0x1c>
    80000c7c:	87aa                	mv	a5,a0
    80000c7e:	1602                	sll	a2,a2,0x20
    80000c80:	9201                	srl	a2,a2,0x20
    80000c82:	00a60733          	add	a4,a2,a0
    cdst[i] = c;
    80000c86:	00b78023          	sb	a1,0(a5)
  for(i = 0; i < n; i++){
    80000c8a:	0785                	add	a5,a5,1
    80000c8c:	fee79de3          	bne	a5,a4,80000c86 <memset+0x12>
  }
  return dst;
}
    80000c90:	6422                	ld	s0,8(sp)
    80000c92:	0141                	add	sp,sp,16
    80000c94:	8082                	ret

0000000080000c96 <memcmp>:

int
memcmp(const void *v1, const void *v2, uint n)
{
    80000c96:	1141                	add	sp,sp,-16
    80000c98:	e422                	sd	s0,8(sp)
    80000c9a:	0800                	add	s0,sp,16
  const uchar *s1, *s2;

  s1 = v1;
  s2 = v2;
  while(n-- > 0){
    80000c9c:	ca05                	beqz	a2,80000ccc <memcmp+0x36>
    80000c9e:	fff6069b          	addw	a3,a2,-1 # fff <_entry-0x7ffff001>
    80000ca2:	1682                	sll	a3,a3,0x20
    80000ca4:	9281                	srl	a3,a3,0x20
    80000ca6:	0685                	add	a3,a3,1
    80000ca8:	96aa                	add	a3,a3,a0
    if(*s1 != *s2)
    80000caa:	00054783          	lbu	a5,0(a0)
    80000cae:	0005c703          	lbu	a4,0(a1)
    80000cb2:	00e79863          	bne	a5,a4,80000cc2 <memcmp+0x2c>
      return *s1 - *s2;
    s1++, s2++;
    80000cb6:	0505                	add	a0,a0,1
    80000cb8:	0585                	add	a1,a1,1
  while(n-- > 0){
    80000cba:	fed518e3          	bne	a0,a3,80000caa <memcmp+0x14>
  }

  return 0;
    80000cbe:	4501                	li	a0,0
    80000cc0:	a019                	j	80000cc6 <memcmp+0x30>
      return *s1 - *s2;
    80000cc2:	40e7853b          	subw	a0,a5,a4
}
    80000cc6:	6422                	ld	s0,8(sp)
    80000cc8:	0141                	add	sp,sp,16
    80000cca:	8082                	ret
  return 0;
    80000ccc:	4501                	li	a0,0
    80000cce:	bfe5                	j	80000cc6 <memcmp+0x30>

0000000080000cd0 <memmove>:

void*
memmove(void *dst, const void *src, uint n)
{
    80000cd0:	1141                	add	sp,sp,-16
    80000cd2:	e422                	sd	s0,8(sp)
    80000cd4:	0800                	add	s0,sp,16
  const char *s;
  char *d;

  if(n == 0)
    80000cd6:	c205                	beqz	a2,80000cf6 <memmove+0x26>
    return dst;
  
  s = src;
  d = dst;
  if(s < d && s + n > d){
    80000cd8:	02a5e263          	bltu	a1,a0,80000cfc <memmove+0x2c>
    s += n;
    d += n;
    while(n-- > 0)
      *--d = *--s;
  } else
    while(n-- > 0)
    80000cdc:	1602                	sll	a2,a2,0x20
    80000cde:	9201                	srl	a2,a2,0x20
    80000ce0:	00c587b3          	add	a5,a1,a2
{
    80000ce4:	872a                	mv	a4,a0
      *d++ = *s++;
    80000ce6:	0585                	add	a1,a1,1
    80000ce8:	0705                	add	a4,a4,1 # fffffffffffff001 <end+0xffffffff7ffde041>
    80000cea:	fff5c683          	lbu	a3,-1(a1)
    80000cee:	fed70fa3          	sb	a3,-1(a4)
    while(n-- > 0)
    80000cf2:	fef59ae3          	bne	a1,a5,80000ce6 <memmove+0x16>

  return dst;
}
    80000cf6:	6422                	ld	s0,8(sp)
    80000cf8:	0141                	add	sp,sp,16
    80000cfa:	8082                	ret
  if(s < d && s + n > d){
    80000cfc:	02061693          	sll	a3,a2,0x20
    80000d00:	9281                	srl	a3,a3,0x20
    80000d02:	00d58733          	add	a4,a1,a3
    80000d06:	fce57be3          	bgeu	a0,a4,80000cdc <memmove+0xc>
    d += n;
    80000d0a:	96aa                	add	a3,a3,a0
    while(n-- > 0)
    80000d0c:	fff6079b          	addw	a5,a2,-1
    80000d10:	1782                	sll	a5,a5,0x20
    80000d12:	9381                	srl	a5,a5,0x20
    80000d14:	fff7c793          	not	a5,a5
    80000d18:	97ba                	add	a5,a5,a4
      *--d = *--s;
    80000d1a:	177d                	add	a4,a4,-1
    80000d1c:	16fd                	add	a3,a3,-1
    80000d1e:	00074603          	lbu	a2,0(a4)
    80000d22:	00c68023          	sb	a2,0(a3)
    while(n-- > 0)
    80000d26:	fee79ae3          	bne	a5,a4,80000d1a <memmove+0x4a>
    80000d2a:	b7f1                	j	80000cf6 <memmove+0x26>

0000000080000d2c <memcpy>:

/* memcpy exists to placate GCC.  Use memmove. */
void*
memcpy(void *dst, const void *src, uint n)
{
    80000d2c:	1141                	add	sp,sp,-16
    80000d2e:	e406                	sd	ra,8(sp)
    80000d30:	e022                	sd	s0,0(sp)
    80000d32:	0800                	add	s0,sp,16
  return memmove(dst, src, n);
    80000d34:	f9dff0ef          	jal	80000cd0 <memmove>
}
    80000d38:	60a2                	ld	ra,8(sp)
    80000d3a:	6402                	ld	s0,0(sp)
    80000d3c:	0141                	add	sp,sp,16
    80000d3e:	8082                	ret

0000000080000d40 <strncmp>:

int
strncmp(const char *p, const char *q, uint n)
{
    80000d40:	1141                	add	sp,sp,-16
    80000d42:	e422                	sd	s0,8(sp)
    80000d44:	0800                	add	s0,sp,16
  while(n > 0 && *p && *p == *q)
    80000d46:	ce11                	beqz	a2,80000d62 <strncmp+0x22>
    80000d48:	00054783          	lbu	a5,0(a0)
    80000d4c:	cf89                	beqz	a5,80000d66 <strncmp+0x26>
    80000d4e:	0005c703          	lbu	a4,0(a1)
    80000d52:	00f71a63          	bne	a4,a5,80000d66 <strncmp+0x26>
    n--, p++, q++;
    80000d56:	367d                	addw	a2,a2,-1
    80000d58:	0505                	add	a0,a0,1
    80000d5a:	0585                	add	a1,a1,1
  while(n > 0 && *p && *p == *q)
    80000d5c:	f675                	bnez	a2,80000d48 <strncmp+0x8>
  if(n == 0)
    return 0;
    80000d5e:	4501                	li	a0,0
    80000d60:	a809                	j	80000d72 <strncmp+0x32>
    80000d62:	4501                	li	a0,0
    80000d64:	a039                	j	80000d72 <strncmp+0x32>
  if(n == 0)
    80000d66:	ca09                	beqz	a2,80000d78 <strncmp+0x38>
  return (uchar)*p - (uchar)*q;
    80000d68:	00054503          	lbu	a0,0(a0)
    80000d6c:	0005c783          	lbu	a5,0(a1)
    80000d70:	9d1d                	subw	a0,a0,a5
}
    80000d72:	6422                	ld	s0,8(sp)
    80000d74:	0141                	add	sp,sp,16
    80000d76:	8082                	ret
    return 0;
    80000d78:	4501                	li	a0,0
    80000d7a:	bfe5                	j	80000d72 <strncmp+0x32>

0000000080000d7c <strncpy>:

char*
strncpy(char *s, const char *t, int n)
{
    80000d7c:	1141                	add	sp,sp,-16
    80000d7e:	e422                	sd	s0,8(sp)
    80000d80:	0800                	add	s0,sp,16
  char *os;

  os = s;
  while(n-- > 0 && (*s++ = *t++) != 0)
    80000d82:	87aa                	mv	a5,a0
    80000d84:	86b2                	mv	a3,a2
    80000d86:	367d                	addw	a2,a2,-1
    80000d88:	00d05963          	blez	a3,80000d9a <strncpy+0x1e>
    80000d8c:	0785                	add	a5,a5,1
    80000d8e:	0005c703          	lbu	a4,0(a1)
    80000d92:	fee78fa3          	sb	a4,-1(a5)
    80000d96:	0585                	add	a1,a1,1
    80000d98:	f775                	bnez	a4,80000d84 <strncpy+0x8>
    ;
  while(n-- > 0)
    80000d9a:	873e                	mv	a4,a5
    80000d9c:	9fb5                	addw	a5,a5,a3
    80000d9e:	37fd                	addw	a5,a5,-1
    80000da0:	00c05963          	blez	a2,80000db2 <strncpy+0x36>
    *s++ = 0;
    80000da4:	0705                	add	a4,a4,1
    80000da6:	fe070fa3          	sb	zero,-1(a4)
  while(n-- > 0)
    80000daa:	40e786bb          	subw	a3,a5,a4
    80000dae:	fed04be3          	bgtz	a3,80000da4 <strncpy+0x28>
  return os;
}
    80000db2:	6422                	ld	s0,8(sp)
    80000db4:	0141                	add	sp,sp,16
    80000db6:	8082                	ret

0000000080000db8 <safestrcpy>:

/* Like strncpy but guaranteed to NUL-terminate. */
char*
safestrcpy(char *s, const char *t, int n)
{
    80000db8:	1141                	add	sp,sp,-16
    80000dba:	e422                	sd	s0,8(sp)
    80000dbc:	0800                	add	s0,sp,16
  char *os;

  os = s;
  if(n <= 0)
    80000dbe:	02c05363          	blez	a2,80000de4 <safestrcpy+0x2c>
    80000dc2:	fff6069b          	addw	a3,a2,-1
    80000dc6:	1682                	sll	a3,a3,0x20
    80000dc8:	9281                	srl	a3,a3,0x20
    80000dca:	96ae                	add	a3,a3,a1
    80000dcc:	87aa                	mv	a5,a0
    return os;
  while(--n > 0 && (*s++ = *t++) != 0)
    80000dce:	00d58963          	beq	a1,a3,80000de0 <safestrcpy+0x28>
    80000dd2:	0585                	add	a1,a1,1
    80000dd4:	0785                	add	a5,a5,1
    80000dd6:	fff5c703          	lbu	a4,-1(a1)
    80000dda:	fee78fa3          	sb	a4,-1(a5)
    80000dde:	fb65                	bnez	a4,80000dce <safestrcpy+0x16>
    ;
  *s = 0;
    80000de0:	00078023          	sb	zero,0(a5)
  return os;
}
    80000de4:	6422                	ld	s0,8(sp)
    80000de6:	0141                	add	sp,sp,16
    80000de8:	8082                	ret

0000000080000dea <strlen>:

int
strlen(const char *s)
{
    80000dea:	1141                	add	sp,sp,-16
    80000dec:	e422                	sd	s0,8(sp)
    80000dee:	0800                	add	s0,sp,16
  int n;

  for(n = 0; s[n]; n++)
    80000df0:	00054783          	lbu	a5,0(a0)
    80000df4:	cf91                	beqz	a5,80000e10 <strlen+0x26>
    80000df6:	0505                	add	a0,a0,1
    80000df8:	87aa                	mv	a5,a0
    80000dfa:	86be                	mv	a3,a5
    80000dfc:	0785                	add	a5,a5,1
    80000dfe:	fff7c703          	lbu	a4,-1(a5)
    80000e02:	ff65                	bnez	a4,80000dfa <strlen+0x10>
    80000e04:	40a6853b          	subw	a0,a3,a0
    80000e08:	2505                	addw	a0,a0,1
    ;
  return n;
}
    80000e0a:	6422                	ld	s0,8(sp)
    80000e0c:	0141                	add	sp,sp,16
    80000e0e:	8082                	ret
  for(n = 0; s[n]; n++)
    80000e10:	4501                	li	a0,0
    80000e12:	bfe5                	j	80000e0a <strlen+0x20>

0000000080000e14 <main>:
volatile static int started = 0;

/* start() jumps here in supervisor mode on all CPUs. */
void
main()
{
    80000e14:	1141                	add	sp,sp,-16
    80000e16:	e406                	sd	ra,8(sp)
    80000e18:	e022                	sd	s0,0(sp)
    80000e1a:	0800                	add	s0,sp,16
  if(cpuid() == 0){
    80000e1c:	1e9000ef          	jal	80001804 <cpuid>
    virtio_disk_init(); /* emulated hard disk */
    userinit();      /* first user process */
    __sync_synchronize();
    started = 1;
  } else {
    while(started == 0)
    80000e20:	00007717          	auipc	a4,0x7
    80000e24:	c4870713          	add	a4,a4,-952 # 80007a68 <started>
  if(cpuid() == 0){
    80000e28:	c51d                	beqz	a0,80000e56 <main+0x42>
    while(started == 0)
    80000e2a:	431c                	lw	a5,0(a4)
    80000e2c:	2781                	sext.w	a5,a5
    80000e2e:	dff5                	beqz	a5,80000e2a <main+0x16>
      ;
    __sync_synchronize();
    80000e30:	0ff0000f          	fence
    printf("hart %d starting\n", cpuid());
    80000e34:	1d1000ef          	jal	80001804 <cpuid>
    80000e38:	85aa                	mv	a1,a0
    80000e3a:	00006517          	auipc	a0,0x6
    80000e3e:	27650513          	add	a0,a0,630 # 800070b0 <digits+0x78>
    80000e42:	e5cff0ef          	jal	8000049e <printf>
    kvminithart();    /* turn on paging */
    80000e46:	080000ef          	jal	80000ec6 <kvminithart>
    trapinithart();   /* install kernel trap vector */
    80000e4a:	4e0010ef          	jal	8000232a <trapinithart>
    plicinithart();   /* ask PLIC for device interrupts */
    80000e4e:	286040ef          	jal	800050d4 <plicinithart>
  }

  scheduler();        
    80000e52:	61d000ef          	jal	80001c6e <scheduler>
    consoleinit();
    80000e56:	d72ff0ef          	jal	800003c8 <consoleinit>
    printfinit();
    80000e5a:	93fff0ef          	jal	80000798 <printfinit>
    printf("\n");
    80000e5e:	00006517          	auipc	a0,0x6
    80000e62:	26250513          	add	a0,a0,610 # 800070c0 <digits+0x88>
    80000e66:	e38ff0ef          	jal	8000049e <printf>
    printf("xv6 kernel is booting\n");
    80000e6a:	00006517          	auipc	a0,0x6
    80000e6e:	22e50513          	add	a0,a0,558 # 80007098 <digits+0x60>
    80000e72:	e2cff0ef          	jal	8000049e <printf>
    printf("\n");
    80000e76:	00006517          	auipc	a0,0x6
    80000e7a:	24a50513          	add	a0,a0,586 # 800070c0 <digits+0x88>
    80000e7e:	e20ff0ef          	jal	8000049e <printf>
    kinit();         /* physical page allocator */
    80000e82:	c1bff0ef          	jal	80000a9c <kinit>
    kvminit();       /* create kernel page table */
    80000e86:	2ca000ef          	jal	80001150 <kvminit>
    kvminithart();   /* turn on paging */
    80000e8a:	03c000ef          	jal	80000ec6 <kvminithart>
    procinit();      /* process table */
    80000e8e:	0cf000ef          	jal	8000175c <procinit>
    trapinit();      /* trap vectors */
    80000e92:	474010ef          	jal	80002306 <trapinit>
    trapinithart();  /* install kernel trap vector */
    80000e96:	494010ef          	jal	8000232a <trapinithart>
    plicinit();      /* set up interrupt controller */
    80000e9a:	224040ef          	jal	800050be <plicinit>
    plicinithart();  /* ask PLIC for device interrupts */
    80000e9e:	236040ef          	jal	800050d4 <plicinithart>
    binit();         /* buffer cache */
    80000ea2:	309010ef          	jal	800029aa <binit>
    iinit();         /* inode table */
    80000ea6:	0e2020ef          	jal	80002f88 <iinit>
    fileinit();      /* file table */
    80000eaa:	655020ef          	jal	80003cfe <fileinit>
    virtio_disk_init(); /* emulated hard disk */
    80000eae:	316040ef          	jal	800051c4 <virtio_disk_init>
    userinit();      /* first user process */
    80000eb2:	3eb000ef          	jal	80001a9c <userinit>
    __sync_synchronize();
    80000eb6:	0ff0000f          	fence
    started = 1;
    80000eba:	4785                	li	a5,1
    80000ebc:	00007717          	auipc	a4,0x7
    80000ec0:	baf72623          	sw	a5,-1108(a4) # 80007a68 <started>
    80000ec4:	b779                	j	80000e52 <main+0x3e>

0000000080000ec6 <kvminithart>:

/* Switch h/w page table register to the kernel's page table, */
/* and enable paging. */
void
kvminithart()
{
    80000ec6:	1141                	add	sp,sp,-16
    80000ec8:	e422                	sd	s0,8(sp)
    80000eca:	0800                	add	s0,sp,16
/* flush the TLB. */
static inline void
sfence_vma()
{
  /* the zero, zero means flush all TLB entries. */
  asm volatile("sfence.vma zero, zero");
    80000ecc:	12000073          	sfence.vma
  /* wait for any previous writes to the page table memory to finish. */
  sfence_vma();

  w_satp(MAKE_SATP(kernel_pagetable));
    80000ed0:	00007797          	auipc	a5,0x7
    80000ed4:	ba07b783          	ld	a5,-1120(a5) # 80007a70 <kernel_pagetable>
    80000ed8:	83b1                	srl	a5,a5,0xc
    80000eda:	577d                	li	a4,-1
    80000edc:	177e                	sll	a4,a4,0x3f
    80000ede:	8fd9                	or	a5,a5,a4
  asm volatile("csrw satp, %0" : : "r" (x));
    80000ee0:	18079073          	csrw	satp,a5
  asm volatile("sfence.vma zero, zero");
    80000ee4:	12000073          	sfence.vma

  /* flush stale entries from the TLB. */
  sfence_vma();
}
    80000ee8:	6422                	ld	s0,8(sp)
    80000eea:	0141                	add	sp,sp,16
    80000eec:	8082                	ret

0000000080000eee <walk>:
/*   21..29 -- 9 bits of level-1 index. */
/*   12..20 -- 9 bits of level-0 index. */
/*    0..11 -- 12 bits of byte offset within the page. */
pte_t *
walk(pagetable_t pagetable, uint64 va, int alloc)
{
    80000eee:	7139                	add	sp,sp,-64
    80000ef0:	fc06                	sd	ra,56(sp)
    80000ef2:	f822                	sd	s0,48(sp)
    80000ef4:	f426                	sd	s1,40(sp)
    80000ef6:	f04a                	sd	s2,32(sp)
    80000ef8:	ec4e                	sd	s3,24(sp)
    80000efa:	e852                	sd	s4,16(sp)
    80000efc:	e456                	sd	s5,8(sp)
    80000efe:	e05a                	sd	s6,0(sp)
    80000f00:	0080                	add	s0,sp,64
    80000f02:	84aa                	mv	s1,a0
    80000f04:	89ae                	mv	s3,a1
    80000f06:	8ab2                	mv	s5,a2
  if(va >= MAXVA)
    80000f08:	57fd                	li	a5,-1
    80000f0a:	83e9                	srl	a5,a5,0x1a
    80000f0c:	4a79                	li	s4,30
    panic("walk");

  for(int level = 2; level > 0; level--) {
    80000f0e:	4b31                	li	s6,12
  if(va >= MAXVA)
    80000f10:	02b7fc63          	bgeu	a5,a1,80000f48 <walk+0x5a>
    panic("walk");
    80000f14:	00006517          	auipc	a0,0x6
    80000f18:	1b450513          	add	a0,a0,436 # 800070c8 <digits+0x90>
    80000f1c:	843ff0ef          	jal	8000075e <panic>
    pte_t *pte = &pagetable[PX(level, va)];
    if(*pte & PTE_V) {
      pagetable = (pagetable_t)PTE2PA(*pte);
    } else {
      if(!alloc || (pagetable = (pde_t*)kalloc()) == 0)
    80000f20:	060a8263          	beqz	s5,80000f84 <walk+0x96>
    80000f24:	badff0ef          	jal	80000ad0 <kalloc>
    80000f28:	84aa                	mv	s1,a0
    80000f2a:	c139                	beqz	a0,80000f70 <walk+0x82>
        return 0;
      memset(pagetable, 0, PGSIZE);
    80000f2c:	6605                	lui	a2,0x1
    80000f2e:	4581                	li	a1,0
    80000f30:	d45ff0ef          	jal	80000c74 <memset>
      *pte = PA2PTE(pagetable) | PTE_V;
    80000f34:	00c4d793          	srl	a5,s1,0xc
    80000f38:	07aa                	sll	a5,a5,0xa
    80000f3a:	0017e793          	or	a5,a5,1
    80000f3e:	00f93023          	sd	a5,0(s2)
  for(int level = 2; level > 0; level--) {
    80000f42:	3a5d                	addw	s4,s4,-9 # ffffffffffffeff7 <end+0xffffffff7ffde037>
    80000f44:	036a0063          	beq	s4,s6,80000f64 <walk+0x76>
    pte_t *pte = &pagetable[PX(level, va)];
    80000f48:	0149d933          	srl	s2,s3,s4
    80000f4c:	1ff97913          	and	s2,s2,511
    80000f50:	090e                	sll	s2,s2,0x3
    80000f52:	9926                	add	s2,s2,s1
    if(*pte & PTE_V) {
    80000f54:	00093483          	ld	s1,0(s2)
    80000f58:	0014f793          	and	a5,s1,1
    80000f5c:	d3f1                	beqz	a5,80000f20 <walk+0x32>
      pagetable = (pagetable_t)PTE2PA(*pte);
    80000f5e:	80a9                	srl	s1,s1,0xa
    80000f60:	04b2                	sll	s1,s1,0xc
    80000f62:	b7c5                	j	80000f42 <walk+0x54>
    }
  }
  return &pagetable[PX(0, va)];
    80000f64:	00c9d513          	srl	a0,s3,0xc
    80000f68:	1ff57513          	and	a0,a0,511
    80000f6c:	050e                	sll	a0,a0,0x3
    80000f6e:	9526                	add	a0,a0,s1
}
    80000f70:	70e2                	ld	ra,56(sp)
    80000f72:	7442                	ld	s0,48(sp)
    80000f74:	74a2                	ld	s1,40(sp)
    80000f76:	7902                	ld	s2,32(sp)
    80000f78:	69e2                	ld	s3,24(sp)
    80000f7a:	6a42                	ld	s4,16(sp)
    80000f7c:	6aa2                	ld	s5,8(sp)
    80000f7e:	6b02                	ld	s6,0(sp)
    80000f80:	6121                	add	sp,sp,64
    80000f82:	8082                	ret
        return 0;
    80000f84:	4501                	li	a0,0
    80000f86:	b7ed                	j	80000f70 <walk+0x82>

0000000080000f88 <walkaddr>:
walkaddr(pagetable_t pagetable, uint64 va)
{
  pte_t *pte;
  uint64 pa;

  if(va >= MAXVA)
    80000f88:	57fd                	li	a5,-1
    80000f8a:	83e9                	srl	a5,a5,0x1a
    80000f8c:	00b7f463          	bgeu	a5,a1,80000f94 <walkaddr+0xc>
    return 0;
    80000f90:	4501                	li	a0,0
    return 0;
  if((*pte & PTE_U) == 0)
    return 0;
  pa = PTE2PA(*pte);
  return pa;
}
    80000f92:	8082                	ret
{
    80000f94:	1141                	add	sp,sp,-16
    80000f96:	e406                	sd	ra,8(sp)
    80000f98:	e022                	sd	s0,0(sp)
    80000f9a:	0800                	add	s0,sp,16
  pte = walk(pagetable, va, 0);
    80000f9c:	4601                	li	a2,0
    80000f9e:	f51ff0ef          	jal	80000eee <walk>
  if(pte == 0)
    80000fa2:	c105                	beqz	a0,80000fc2 <walkaddr+0x3a>
  if((*pte & PTE_V) == 0)
    80000fa4:	611c                	ld	a5,0(a0)
  if((*pte & PTE_U) == 0)
    80000fa6:	0117f693          	and	a3,a5,17
    80000faa:	4745                	li	a4,17
    return 0;
    80000fac:	4501                	li	a0,0
  if((*pte & PTE_U) == 0)
    80000fae:	00e68663          	beq	a3,a4,80000fba <walkaddr+0x32>
}
    80000fb2:	60a2                	ld	ra,8(sp)
    80000fb4:	6402                	ld	s0,0(sp)
    80000fb6:	0141                	add	sp,sp,16
    80000fb8:	8082                	ret
  pa = PTE2PA(*pte);
    80000fba:	83a9                	srl	a5,a5,0xa
    80000fbc:	00c79513          	sll	a0,a5,0xc
  return pa;
    80000fc0:	bfcd                	j	80000fb2 <walkaddr+0x2a>
    return 0;
    80000fc2:	4501                	li	a0,0
    80000fc4:	b7fd                	j	80000fb2 <walkaddr+0x2a>

0000000080000fc6 <mappages>:
/* va and size MUST be page-aligned. */
/* Returns 0 on success, -1 if walk() couldn't */
/* allocate a needed page-table page. */
int
mappages(pagetable_t pagetable, uint64 va, uint64 size, uint64 pa, int perm)
{
    80000fc6:	715d                	add	sp,sp,-80
    80000fc8:	e486                	sd	ra,72(sp)
    80000fca:	e0a2                	sd	s0,64(sp)
    80000fcc:	fc26                	sd	s1,56(sp)
    80000fce:	f84a                	sd	s2,48(sp)
    80000fd0:	f44e                	sd	s3,40(sp)
    80000fd2:	f052                	sd	s4,32(sp)
    80000fd4:	ec56                	sd	s5,24(sp)
    80000fd6:	e85a                	sd	s6,16(sp)
    80000fd8:	e45e                	sd	s7,8(sp)
    80000fda:	0880                	add	s0,sp,80
  uint64 a, last;
  pte_t *pte;

  if((va % PGSIZE) != 0)
    80000fdc:	03459793          	sll	a5,a1,0x34
    80000fe0:	e7a9                	bnez	a5,8000102a <mappages+0x64>
    80000fe2:	8aaa                	mv	s5,a0
    80000fe4:	8b3a                	mv	s6,a4
    panic("mappages: va not aligned");

  if((size % PGSIZE) != 0)
    80000fe6:	03461793          	sll	a5,a2,0x34
    80000fea:	e7b1                	bnez	a5,80001036 <mappages+0x70>
    panic("mappages: size not aligned");

  if(size == 0)
    80000fec:	ca39                	beqz	a2,80001042 <mappages+0x7c>
    panic("mappages: size");
  
  a = va;
  last = va + size - PGSIZE;
    80000fee:	77fd                	lui	a5,0xfffff
    80000ff0:	963e                	add	a2,a2,a5
    80000ff2:	00b609b3          	add	s3,a2,a1
  a = va;
    80000ff6:	892e                	mv	s2,a1
    80000ff8:	40b68a33          	sub	s4,a3,a1
    if(*pte & PTE_V)
      panic("mappages: remap");
    *pte = PA2PTE(pa) | perm | PTE_V;
    if(a == last)
      break;
    a += PGSIZE;
    80000ffc:	6b85                	lui	s7,0x1
    80000ffe:	012a04b3          	add	s1,s4,s2
    if((pte = walk(pagetable, a, 1)) == 0)
    80001002:	4605                	li	a2,1
    80001004:	85ca                	mv	a1,s2
    80001006:	8556                	mv	a0,s5
    80001008:	ee7ff0ef          	jal	80000eee <walk>
    8000100c:	c539                	beqz	a0,8000105a <mappages+0x94>
    if(*pte & PTE_V)
    8000100e:	611c                	ld	a5,0(a0)
    80001010:	8b85                	and	a5,a5,1
    80001012:	ef95                	bnez	a5,8000104e <mappages+0x88>
    *pte = PA2PTE(pa) | perm | PTE_V;
    80001014:	80b1                	srl	s1,s1,0xc
    80001016:	04aa                	sll	s1,s1,0xa
    80001018:	0164e4b3          	or	s1,s1,s6
    8000101c:	0014e493          	or	s1,s1,1
    80001020:	e104                	sd	s1,0(a0)
    if(a == last)
    80001022:	05390863          	beq	s2,s3,80001072 <mappages+0xac>
    a += PGSIZE;
    80001026:	995e                	add	s2,s2,s7
    if((pte = walk(pagetable, a, 1)) == 0)
    80001028:	bfd9                	j	80000ffe <mappages+0x38>
    panic("mappages: va not aligned");
    8000102a:	00006517          	auipc	a0,0x6
    8000102e:	0a650513          	add	a0,a0,166 # 800070d0 <digits+0x98>
    80001032:	f2cff0ef          	jal	8000075e <panic>
    panic("mappages: size not aligned");
    80001036:	00006517          	auipc	a0,0x6
    8000103a:	0ba50513          	add	a0,a0,186 # 800070f0 <digits+0xb8>
    8000103e:	f20ff0ef          	jal	8000075e <panic>
    panic("mappages: size");
    80001042:	00006517          	auipc	a0,0x6
    80001046:	0ce50513          	add	a0,a0,206 # 80007110 <digits+0xd8>
    8000104a:	f14ff0ef          	jal	8000075e <panic>
      panic("mappages: remap");
    8000104e:	00006517          	auipc	a0,0x6
    80001052:	0d250513          	add	a0,a0,210 # 80007120 <digits+0xe8>
    80001056:	f08ff0ef          	jal	8000075e <panic>
      return -1;
    8000105a:	557d                	li	a0,-1
    pa += PGSIZE;
  }
  return 0;
}
    8000105c:	60a6                	ld	ra,72(sp)
    8000105e:	6406                	ld	s0,64(sp)
    80001060:	74e2                	ld	s1,56(sp)
    80001062:	7942                	ld	s2,48(sp)
    80001064:	79a2                	ld	s3,40(sp)
    80001066:	7a02                	ld	s4,32(sp)
    80001068:	6ae2                	ld	s5,24(sp)
    8000106a:	6b42                	ld	s6,16(sp)
    8000106c:	6ba2                	ld	s7,8(sp)
    8000106e:	6161                	add	sp,sp,80
    80001070:	8082                	ret
  return 0;
    80001072:	4501                	li	a0,0
    80001074:	b7e5                	j	8000105c <mappages+0x96>

0000000080001076 <kvmmap>:
{
    80001076:	1141                	add	sp,sp,-16
    80001078:	e406                	sd	ra,8(sp)
    8000107a:	e022                	sd	s0,0(sp)
    8000107c:	0800                	add	s0,sp,16
    8000107e:	87b6                	mv	a5,a3
  if(mappages(kpgtbl, va, sz, pa, perm) != 0)
    80001080:	86b2                	mv	a3,a2
    80001082:	863e                	mv	a2,a5
    80001084:	f43ff0ef          	jal	80000fc6 <mappages>
    80001088:	e509                	bnez	a0,80001092 <kvmmap+0x1c>
}
    8000108a:	60a2                	ld	ra,8(sp)
    8000108c:	6402                	ld	s0,0(sp)
    8000108e:	0141                	add	sp,sp,16
    80001090:	8082                	ret
    panic("kvmmap");
    80001092:	00006517          	auipc	a0,0x6
    80001096:	09e50513          	add	a0,a0,158 # 80007130 <digits+0xf8>
    8000109a:	ec4ff0ef          	jal	8000075e <panic>

000000008000109e <kvmmake>:
{
    8000109e:	1101                	add	sp,sp,-32
    800010a0:	ec06                	sd	ra,24(sp)
    800010a2:	e822                	sd	s0,16(sp)
    800010a4:	e426                	sd	s1,8(sp)
    800010a6:	e04a                	sd	s2,0(sp)
    800010a8:	1000                	add	s0,sp,32
  kpgtbl = (pagetable_t) kalloc();
    800010aa:	a27ff0ef          	jal	80000ad0 <kalloc>
    800010ae:	84aa                	mv	s1,a0
  memset(kpgtbl, 0, PGSIZE);
    800010b0:	6605                	lui	a2,0x1
    800010b2:	4581                	li	a1,0
    800010b4:	bc1ff0ef          	jal	80000c74 <memset>
  kvmmap(kpgtbl, UART0, UART0, PGSIZE, PTE_R | PTE_W);
    800010b8:	4719                	li	a4,6
    800010ba:	6685                	lui	a3,0x1
    800010bc:	10000637          	lui	a2,0x10000
    800010c0:	100005b7          	lui	a1,0x10000
    800010c4:	8526                	mv	a0,s1
    800010c6:	fb1ff0ef          	jal	80001076 <kvmmap>
  kvmmap(kpgtbl, VIRTIO0, VIRTIO0, PGSIZE, PTE_R | PTE_W);
    800010ca:	4719                	li	a4,6
    800010cc:	6685                	lui	a3,0x1
    800010ce:	10001637          	lui	a2,0x10001
    800010d2:	100015b7          	lui	a1,0x10001
    800010d6:	8526                	mv	a0,s1
    800010d8:	f9fff0ef          	jal	80001076 <kvmmap>
  kvmmap(kpgtbl, PLIC, PLIC, 0x4000000, PTE_R | PTE_W);
    800010dc:	4719                	li	a4,6
    800010de:	040006b7          	lui	a3,0x4000
    800010e2:	0c000637          	lui	a2,0xc000
    800010e6:	0c0005b7          	lui	a1,0xc000
    800010ea:	8526                	mv	a0,s1
    800010ec:	f8bff0ef          	jal	80001076 <kvmmap>
  kvmmap(kpgtbl, KERNBASE, KERNBASE, (uint64)etext-KERNBASE, PTE_R | PTE_X);
    800010f0:	00006917          	auipc	s2,0x6
    800010f4:	f1090913          	add	s2,s2,-240 # 80007000 <etext>
    800010f8:	4729                	li	a4,10
    800010fa:	80006697          	auipc	a3,0x80006
    800010fe:	f0668693          	add	a3,a3,-250 # 7000 <_entry-0x7fff9000>
    80001102:	4605                	li	a2,1
    80001104:	067e                	sll	a2,a2,0x1f
    80001106:	85b2                	mv	a1,a2
    80001108:	8526                	mv	a0,s1
    8000110a:	f6dff0ef          	jal	80001076 <kvmmap>
  kvmmap(kpgtbl, (uint64)etext, (uint64)etext, PHYSTOP-(uint64)etext, PTE_R | PTE_W);
    8000110e:	4719                	li	a4,6
    80001110:	46c5                	li	a3,17
    80001112:	06ee                	sll	a3,a3,0x1b
    80001114:	412686b3          	sub	a3,a3,s2
    80001118:	864a                	mv	a2,s2
    8000111a:	85ca                	mv	a1,s2
    8000111c:	8526                	mv	a0,s1
    8000111e:	f59ff0ef          	jal	80001076 <kvmmap>
  kvmmap(kpgtbl, TRAMPOLINE, (uint64)trampoline, PGSIZE, PTE_R | PTE_X);
    80001122:	4729                	li	a4,10
    80001124:	6685                	lui	a3,0x1
    80001126:	00005617          	auipc	a2,0x5
    8000112a:	eda60613          	add	a2,a2,-294 # 80006000 <_trampoline>
    8000112e:	040005b7          	lui	a1,0x4000
    80001132:	15fd                	add	a1,a1,-1 # 3ffffff <_entry-0x7c000001>
    80001134:	05b2                	sll	a1,a1,0xc
    80001136:	8526                	mv	a0,s1
    80001138:	f3fff0ef          	jal	80001076 <kvmmap>
  proc_mapstacks(kpgtbl);
    8000113c:	8526                	mv	a0,s1
    8000113e:	594000ef          	jal	800016d2 <proc_mapstacks>
}
    80001142:	8526                	mv	a0,s1
    80001144:	60e2                	ld	ra,24(sp)
    80001146:	6442                	ld	s0,16(sp)
    80001148:	64a2                	ld	s1,8(sp)
    8000114a:	6902                	ld	s2,0(sp)
    8000114c:	6105                	add	sp,sp,32
    8000114e:	8082                	ret

0000000080001150 <kvminit>:
{
    80001150:	1141                	add	sp,sp,-16
    80001152:	e406                	sd	ra,8(sp)
    80001154:	e022                	sd	s0,0(sp)
    80001156:	0800                	add	s0,sp,16
  kernel_pagetable = kvmmake();
    80001158:	f47ff0ef          	jal	8000109e <kvmmake>
    8000115c:	00007797          	auipc	a5,0x7
    80001160:	90a7ba23          	sd	a0,-1772(a5) # 80007a70 <kernel_pagetable>
}
    80001164:	60a2                	ld	ra,8(sp)
    80001166:	6402                	ld	s0,0(sp)
    80001168:	0141                	add	sp,sp,16
    8000116a:	8082                	ret

000000008000116c <uvmunmap>:
/* Remove npages of mappings starting from va. va must be */
/* page-aligned. The mappings must exist. */
/* Optionally free the physical memory. */
void
uvmunmap(pagetable_t pagetable, uint64 va, uint64 npages, int do_free)
{
    8000116c:	715d                	add	sp,sp,-80
    8000116e:	e486                	sd	ra,72(sp)
    80001170:	e0a2                	sd	s0,64(sp)
    80001172:	fc26                	sd	s1,56(sp)
    80001174:	f84a                	sd	s2,48(sp)
    80001176:	f44e                	sd	s3,40(sp)
    80001178:	f052                	sd	s4,32(sp)
    8000117a:	ec56                	sd	s5,24(sp)
    8000117c:	e85a                	sd	s6,16(sp)
    8000117e:	e45e                	sd	s7,8(sp)
    80001180:	0880                	add	s0,sp,80
  uint64 a;
  pte_t *pte;

  if((va % PGSIZE) != 0)
    80001182:	03459793          	sll	a5,a1,0x34
    80001186:	e795                	bnez	a5,800011b2 <uvmunmap+0x46>
    80001188:	8a2a                	mv	s4,a0
    8000118a:	892e                	mv	s2,a1
    8000118c:	8ab6                	mv	s5,a3
    panic("uvmunmap: not aligned");

  for(a = va; a < va + npages*PGSIZE; a += PGSIZE){
    8000118e:	0632                	sll	a2,a2,0xc
    80001190:	00b609b3          	add	s3,a2,a1
    if((pte = walk(pagetable, a, 0)) == 0)
      panic("uvmunmap: walk");
    if((*pte & PTE_V) == 0)
      panic("uvmunmap: not mapped");
    if(PTE_FLAGS(*pte) == PTE_V)
    80001194:	4b85                	li	s7,1
  for(a = va; a < va + npages*PGSIZE; a += PGSIZE){
    80001196:	6b05                	lui	s6,0x1
    80001198:	0535ea63          	bltu	a1,s3,800011ec <uvmunmap+0x80>
      uint64 pa = PTE2PA(*pte);
      kfree((void*)pa);
    }
    *pte = 0;
  }
}
    8000119c:	60a6                	ld	ra,72(sp)
    8000119e:	6406                	ld	s0,64(sp)
    800011a0:	74e2                	ld	s1,56(sp)
    800011a2:	7942                	ld	s2,48(sp)
    800011a4:	79a2                	ld	s3,40(sp)
    800011a6:	7a02                	ld	s4,32(sp)
    800011a8:	6ae2                	ld	s5,24(sp)
    800011aa:	6b42                	ld	s6,16(sp)
    800011ac:	6ba2                	ld	s7,8(sp)
    800011ae:	6161                	add	sp,sp,80
    800011b0:	8082                	ret
    panic("uvmunmap: not aligned");
    800011b2:	00006517          	auipc	a0,0x6
    800011b6:	f8650513          	add	a0,a0,-122 # 80007138 <digits+0x100>
    800011ba:	da4ff0ef          	jal	8000075e <panic>
      panic("uvmunmap: walk");
    800011be:	00006517          	auipc	a0,0x6
    800011c2:	f9250513          	add	a0,a0,-110 # 80007150 <digits+0x118>
    800011c6:	d98ff0ef          	jal	8000075e <panic>
      panic("uvmunmap: not mapped");
    800011ca:	00006517          	auipc	a0,0x6
    800011ce:	f9650513          	add	a0,a0,-106 # 80007160 <digits+0x128>
    800011d2:	d8cff0ef          	jal	8000075e <panic>
      panic("uvmunmap: not a leaf");
    800011d6:	00006517          	auipc	a0,0x6
    800011da:	fa250513          	add	a0,a0,-94 # 80007178 <digits+0x140>
    800011de:	d80ff0ef          	jal	8000075e <panic>
    *pte = 0;
    800011e2:	0004b023          	sd	zero,0(s1)
  for(a = va; a < va + npages*PGSIZE; a += PGSIZE){
    800011e6:	995a                	add	s2,s2,s6
    800011e8:	fb397ae3          	bgeu	s2,s3,8000119c <uvmunmap+0x30>
    if((pte = walk(pagetable, a, 0)) == 0)
    800011ec:	4601                	li	a2,0
    800011ee:	85ca                	mv	a1,s2
    800011f0:	8552                	mv	a0,s4
    800011f2:	cfdff0ef          	jal	80000eee <walk>
    800011f6:	84aa                	mv	s1,a0
    800011f8:	d179                	beqz	a0,800011be <uvmunmap+0x52>
    if((*pte & PTE_V) == 0)
    800011fa:	6108                	ld	a0,0(a0)
    800011fc:	00157793          	and	a5,a0,1
    80001200:	d7e9                	beqz	a5,800011ca <uvmunmap+0x5e>
    if(PTE_FLAGS(*pte) == PTE_V)
    80001202:	3ff57793          	and	a5,a0,1023
    80001206:	fd7788e3          	beq	a5,s7,800011d6 <uvmunmap+0x6a>
    if(do_free){
    8000120a:	fc0a8ce3          	beqz	s5,800011e2 <uvmunmap+0x76>
      uint64 pa = PTE2PA(*pte);
    8000120e:	8129                	srl	a0,a0,0xa
      kfree((void*)pa);
    80001210:	0532                	sll	a0,a0,0xc
    80001212:	fdcff0ef          	jal	800009ee <kfree>
    80001216:	b7f1                	j	800011e2 <uvmunmap+0x76>

0000000080001218 <uvmcreate>:

/* create an empty user page table. */
/* returns 0 if out of memory. */
pagetable_t
uvmcreate()
{
    80001218:	1101                	add	sp,sp,-32
    8000121a:	ec06                	sd	ra,24(sp)
    8000121c:	e822                	sd	s0,16(sp)
    8000121e:	e426                	sd	s1,8(sp)
    80001220:	1000                	add	s0,sp,32
  pagetable_t pagetable;
  pagetable = (pagetable_t) kalloc();
    80001222:	8afff0ef          	jal	80000ad0 <kalloc>
    80001226:	84aa                	mv	s1,a0
  if(pagetable == 0)
    80001228:	c509                	beqz	a0,80001232 <uvmcreate+0x1a>
    return 0;
  memset(pagetable, 0, PGSIZE);
    8000122a:	6605                	lui	a2,0x1
    8000122c:	4581                	li	a1,0
    8000122e:	a47ff0ef          	jal	80000c74 <memset>
  return pagetable;
}
    80001232:	8526                	mv	a0,s1
    80001234:	60e2                	ld	ra,24(sp)
    80001236:	6442                	ld	s0,16(sp)
    80001238:	64a2                	ld	s1,8(sp)
    8000123a:	6105                	add	sp,sp,32
    8000123c:	8082                	ret

000000008000123e <uvmfirst>:
/* Load the user initcode into address 0 of pagetable, */
/* for the very first process. */
/* sz must be less than a page. */
void
uvmfirst(pagetable_t pagetable, uchar *src, uint sz)
{
    8000123e:	7179                	add	sp,sp,-48
    80001240:	f406                	sd	ra,40(sp)
    80001242:	f022                	sd	s0,32(sp)
    80001244:	ec26                	sd	s1,24(sp)
    80001246:	e84a                	sd	s2,16(sp)
    80001248:	e44e                	sd	s3,8(sp)
    8000124a:	e052                	sd	s4,0(sp)
    8000124c:	1800                	add	s0,sp,48
  char *mem;

  if(sz >= PGSIZE)
    8000124e:	6785                	lui	a5,0x1
    80001250:	04f67063          	bgeu	a2,a5,80001290 <uvmfirst+0x52>
    80001254:	8a2a                	mv	s4,a0
    80001256:	89ae                	mv	s3,a1
    80001258:	84b2                	mv	s1,a2
    panic("uvmfirst: more than a page");
  mem = kalloc();
    8000125a:	877ff0ef          	jal	80000ad0 <kalloc>
    8000125e:	892a                	mv	s2,a0
  memset(mem, 0, PGSIZE);
    80001260:	6605                	lui	a2,0x1
    80001262:	4581                	li	a1,0
    80001264:	a11ff0ef          	jal	80000c74 <memset>
  mappages(pagetable, 0, PGSIZE, (uint64)mem, PTE_W|PTE_R|PTE_X|PTE_U);
    80001268:	4779                	li	a4,30
    8000126a:	86ca                	mv	a3,s2
    8000126c:	6605                	lui	a2,0x1
    8000126e:	4581                	li	a1,0
    80001270:	8552                	mv	a0,s4
    80001272:	d55ff0ef          	jal	80000fc6 <mappages>
  memmove(mem, src, sz);
    80001276:	8626                	mv	a2,s1
    80001278:	85ce                	mv	a1,s3
    8000127a:	854a                	mv	a0,s2
    8000127c:	a55ff0ef          	jal	80000cd0 <memmove>
}
    80001280:	70a2                	ld	ra,40(sp)
    80001282:	7402                	ld	s0,32(sp)
    80001284:	64e2                	ld	s1,24(sp)
    80001286:	6942                	ld	s2,16(sp)
    80001288:	69a2                	ld	s3,8(sp)
    8000128a:	6a02                	ld	s4,0(sp)
    8000128c:	6145                	add	sp,sp,48
    8000128e:	8082                	ret
    panic("uvmfirst: more than a page");
    80001290:	00006517          	auipc	a0,0x6
    80001294:	f0050513          	add	a0,a0,-256 # 80007190 <digits+0x158>
    80001298:	cc6ff0ef          	jal	8000075e <panic>

000000008000129c <uvmdealloc>:
/* newsz.  oldsz and newsz need not be page-aligned, nor does newsz */
/* need to be less than oldsz.  oldsz can be larger than the actual */
/* process size.  Returns the new process size. */
uint64
uvmdealloc(pagetable_t pagetable, uint64 oldsz, uint64 newsz)
{
    8000129c:	1101                	add	sp,sp,-32
    8000129e:	ec06                	sd	ra,24(sp)
    800012a0:	e822                	sd	s0,16(sp)
    800012a2:	e426                	sd	s1,8(sp)
    800012a4:	1000                	add	s0,sp,32
  if(newsz >= oldsz)
    return oldsz;
    800012a6:	84ae                	mv	s1,a1
  if(newsz >= oldsz)
    800012a8:	00b67d63          	bgeu	a2,a1,800012c2 <uvmdealloc+0x26>
    800012ac:	84b2                	mv	s1,a2

  if(PGROUNDUP(newsz) < PGROUNDUP(oldsz)){
    800012ae:	6785                	lui	a5,0x1
    800012b0:	17fd                	add	a5,a5,-1 # fff <_entry-0x7ffff001>
    800012b2:	00f60733          	add	a4,a2,a5
    800012b6:	76fd                	lui	a3,0xfffff
    800012b8:	8f75                	and	a4,a4,a3
    800012ba:	97ae                	add	a5,a5,a1
    800012bc:	8ff5                	and	a5,a5,a3
    800012be:	00f76863          	bltu	a4,a5,800012ce <uvmdealloc+0x32>
    int npages = (PGROUNDUP(oldsz) - PGROUNDUP(newsz)) / PGSIZE;
    uvmunmap(pagetable, PGROUNDUP(newsz), npages, 1);
  }

  return newsz;
}
    800012c2:	8526                	mv	a0,s1
    800012c4:	60e2                	ld	ra,24(sp)
    800012c6:	6442                	ld	s0,16(sp)
    800012c8:	64a2                	ld	s1,8(sp)
    800012ca:	6105                	add	sp,sp,32
    800012cc:	8082                	ret
    int npages = (PGROUNDUP(oldsz) - PGROUNDUP(newsz)) / PGSIZE;
    800012ce:	8f99                	sub	a5,a5,a4
    800012d0:	83b1                	srl	a5,a5,0xc
    uvmunmap(pagetable, PGROUNDUP(newsz), npages, 1);
    800012d2:	4685                	li	a3,1
    800012d4:	0007861b          	sext.w	a2,a5
    800012d8:	85ba                	mv	a1,a4
    800012da:	e93ff0ef          	jal	8000116c <uvmunmap>
    800012de:	b7d5                	j	800012c2 <uvmdealloc+0x26>

00000000800012e0 <uvmalloc>:
  if(newsz < oldsz)
    800012e0:	08b66963          	bltu	a2,a1,80001372 <uvmalloc+0x92>
{
    800012e4:	7139                	add	sp,sp,-64
    800012e6:	fc06                	sd	ra,56(sp)
    800012e8:	f822                	sd	s0,48(sp)
    800012ea:	f426                	sd	s1,40(sp)
    800012ec:	f04a                	sd	s2,32(sp)
    800012ee:	ec4e                	sd	s3,24(sp)
    800012f0:	e852                	sd	s4,16(sp)
    800012f2:	e456                	sd	s5,8(sp)
    800012f4:	e05a                	sd	s6,0(sp)
    800012f6:	0080                	add	s0,sp,64
    800012f8:	8aaa                	mv	s5,a0
    800012fa:	8a32                	mv	s4,a2
  oldsz = PGROUNDUP(oldsz);
    800012fc:	6785                	lui	a5,0x1
    800012fe:	17fd                	add	a5,a5,-1 # fff <_entry-0x7ffff001>
    80001300:	95be                	add	a1,a1,a5
    80001302:	77fd                	lui	a5,0xfffff
    80001304:	00f5f9b3          	and	s3,a1,a5
  for(a = oldsz; a < newsz; a += PGSIZE){
    80001308:	06c9f763          	bgeu	s3,a2,80001376 <uvmalloc+0x96>
    8000130c:	894e                	mv	s2,s3
    if(mappages(pagetable, a, PGSIZE, (uint64)mem, PTE_R|PTE_U|xperm) != 0){
    8000130e:	0126eb13          	or	s6,a3,18
    mem = kalloc();
    80001312:	fbeff0ef          	jal	80000ad0 <kalloc>
    80001316:	84aa                	mv	s1,a0
    if(mem == 0){
    80001318:	c11d                	beqz	a0,8000133e <uvmalloc+0x5e>
    memset(mem, 0, PGSIZE);
    8000131a:	6605                	lui	a2,0x1
    8000131c:	4581                	li	a1,0
    8000131e:	957ff0ef          	jal	80000c74 <memset>
    if(mappages(pagetable, a, PGSIZE, (uint64)mem, PTE_R|PTE_U|xperm) != 0){
    80001322:	875a                	mv	a4,s6
    80001324:	86a6                	mv	a3,s1
    80001326:	6605                	lui	a2,0x1
    80001328:	85ca                	mv	a1,s2
    8000132a:	8556                	mv	a0,s5
    8000132c:	c9bff0ef          	jal	80000fc6 <mappages>
    80001330:	e51d                	bnez	a0,8000135e <uvmalloc+0x7e>
  for(a = oldsz; a < newsz; a += PGSIZE){
    80001332:	6785                	lui	a5,0x1
    80001334:	993e                	add	s2,s2,a5
    80001336:	fd496ee3          	bltu	s2,s4,80001312 <uvmalloc+0x32>
  return newsz;
    8000133a:	8552                	mv	a0,s4
    8000133c:	a039                	j	8000134a <uvmalloc+0x6a>
      uvmdealloc(pagetable, a, oldsz);
    8000133e:	864e                	mv	a2,s3
    80001340:	85ca                	mv	a1,s2
    80001342:	8556                	mv	a0,s5
    80001344:	f59ff0ef          	jal	8000129c <uvmdealloc>
      return 0;
    80001348:	4501                	li	a0,0
}
    8000134a:	70e2                	ld	ra,56(sp)
    8000134c:	7442                	ld	s0,48(sp)
    8000134e:	74a2                	ld	s1,40(sp)
    80001350:	7902                	ld	s2,32(sp)
    80001352:	69e2                	ld	s3,24(sp)
    80001354:	6a42                	ld	s4,16(sp)
    80001356:	6aa2                	ld	s5,8(sp)
    80001358:	6b02                	ld	s6,0(sp)
    8000135a:	6121                	add	sp,sp,64
    8000135c:	8082                	ret
      kfree(mem);
    8000135e:	8526                	mv	a0,s1
    80001360:	e8eff0ef          	jal	800009ee <kfree>
      uvmdealloc(pagetable, a, oldsz);
    80001364:	864e                	mv	a2,s3
    80001366:	85ca                	mv	a1,s2
    80001368:	8556                	mv	a0,s5
    8000136a:	f33ff0ef          	jal	8000129c <uvmdealloc>
      return 0;
    8000136e:	4501                	li	a0,0
    80001370:	bfe9                	j	8000134a <uvmalloc+0x6a>
    return oldsz;
    80001372:	852e                	mv	a0,a1
}
    80001374:	8082                	ret
  return newsz;
    80001376:	8532                	mv	a0,a2
    80001378:	bfc9                	j	8000134a <uvmalloc+0x6a>

000000008000137a <freewalk>:

/* Recursively free page-table pages. */
/* All leaf mappings must already have been removed. */
void
freewalk(pagetable_t pagetable)
{
    8000137a:	7179                	add	sp,sp,-48
    8000137c:	f406                	sd	ra,40(sp)
    8000137e:	f022                	sd	s0,32(sp)
    80001380:	ec26                	sd	s1,24(sp)
    80001382:	e84a                	sd	s2,16(sp)
    80001384:	e44e                	sd	s3,8(sp)
    80001386:	e052                	sd	s4,0(sp)
    80001388:	1800                	add	s0,sp,48
    8000138a:	8a2a                	mv	s4,a0
  /* there are 2^9 = 512 PTEs in a page table. */
  for(int i = 0; i < 512; i++){
    8000138c:	84aa                	mv	s1,a0
    8000138e:	6905                	lui	s2,0x1
    80001390:	992a                	add	s2,s2,a0
    pte_t pte = pagetable[i];
    if((pte & PTE_V) && (pte & (PTE_R|PTE_W|PTE_X)) == 0){
    80001392:	4985                	li	s3,1
    80001394:	a819                	j	800013aa <freewalk+0x30>
      /* this PTE points to a lower-level page table. */
      uint64 child = PTE2PA(pte);
    80001396:	83a9                	srl	a5,a5,0xa
      freewalk((pagetable_t)child);
    80001398:	00c79513          	sll	a0,a5,0xc
    8000139c:	fdfff0ef          	jal	8000137a <freewalk>
      pagetable[i] = 0;
    800013a0:	0004b023          	sd	zero,0(s1)
  for(int i = 0; i < 512; i++){
    800013a4:	04a1                	add	s1,s1,8
    800013a6:	01248f63          	beq	s1,s2,800013c4 <freewalk+0x4a>
    pte_t pte = pagetable[i];
    800013aa:	609c                	ld	a5,0(s1)
    if((pte & PTE_V) && (pte & (PTE_R|PTE_W|PTE_X)) == 0){
    800013ac:	00f7f713          	and	a4,a5,15
    800013b0:	ff3703e3          	beq	a4,s3,80001396 <freewalk+0x1c>
    } else if(pte & PTE_V){
    800013b4:	8b85                	and	a5,a5,1
    800013b6:	d7fd                	beqz	a5,800013a4 <freewalk+0x2a>
      panic("freewalk: leaf");
    800013b8:	00006517          	auipc	a0,0x6
    800013bc:	df850513          	add	a0,a0,-520 # 800071b0 <digits+0x178>
    800013c0:	b9eff0ef          	jal	8000075e <panic>
    }
  }
  kfree((void*)pagetable);
    800013c4:	8552                	mv	a0,s4
    800013c6:	e28ff0ef          	jal	800009ee <kfree>
}
    800013ca:	70a2                	ld	ra,40(sp)
    800013cc:	7402                	ld	s0,32(sp)
    800013ce:	64e2                	ld	s1,24(sp)
    800013d0:	6942                	ld	s2,16(sp)
    800013d2:	69a2                	ld	s3,8(sp)
    800013d4:	6a02                	ld	s4,0(sp)
    800013d6:	6145                	add	sp,sp,48
    800013d8:	8082                	ret

00000000800013da <uvmfree>:

/* Free user memory pages, */
/* then free page-table pages. */
void
uvmfree(pagetable_t pagetable, uint64 sz)
{
    800013da:	1101                	add	sp,sp,-32
    800013dc:	ec06                	sd	ra,24(sp)
    800013de:	e822                	sd	s0,16(sp)
    800013e0:	e426                	sd	s1,8(sp)
    800013e2:	1000                	add	s0,sp,32
    800013e4:	84aa                	mv	s1,a0
  if(sz > 0)
    800013e6:	e989                	bnez	a1,800013f8 <uvmfree+0x1e>
    uvmunmap(pagetable, 0, PGROUNDUP(sz)/PGSIZE, 1);
  freewalk(pagetable);
    800013e8:	8526                	mv	a0,s1
    800013ea:	f91ff0ef          	jal	8000137a <freewalk>
}
    800013ee:	60e2                	ld	ra,24(sp)
    800013f0:	6442                	ld	s0,16(sp)
    800013f2:	64a2                	ld	s1,8(sp)
    800013f4:	6105                	add	sp,sp,32
    800013f6:	8082                	ret
    uvmunmap(pagetable, 0, PGROUNDUP(sz)/PGSIZE, 1);
    800013f8:	6785                	lui	a5,0x1
    800013fa:	17fd                	add	a5,a5,-1 # fff <_entry-0x7ffff001>
    800013fc:	95be                	add	a1,a1,a5
    800013fe:	4685                	li	a3,1
    80001400:	00c5d613          	srl	a2,a1,0xc
    80001404:	4581                	li	a1,0
    80001406:	d67ff0ef          	jal	8000116c <uvmunmap>
    8000140a:	bff9                	j	800013e8 <uvmfree+0xe>

000000008000140c <uvmcopy>:
  pte_t *pte;
  uint64 pa, i;
  uint flags;
  char *mem;

  for(i = 0; i < sz; i += PGSIZE){
    8000140c:	c65d                	beqz	a2,800014ba <uvmcopy+0xae>
{
    8000140e:	715d                	add	sp,sp,-80
    80001410:	e486                	sd	ra,72(sp)
    80001412:	e0a2                	sd	s0,64(sp)
    80001414:	fc26                	sd	s1,56(sp)
    80001416:	f84a                	sd	s2,48(sp)
    80001418:	f44e                	sd	s3,40(sp)
    8000141a:	f052                	sd	s4,32(sp)
    8000141c:	ec56                	sd	s5,24(sp)
    8000141e:	e85a                	sd	s6,16(sp)
    80001420:	e45e                	sd	s7,8(sp)
    80001422:	0880                	add	s0,sp,80
    80001424:	8b2a                	mv	s6,a0
    80001426:	8aae                	mv	s5,a1
    80001428:	8a32                	mv	s4,a2
  for(i = 0; i < sz; i += PGSIZE){
    8000142a:	4981                	li	s3,0
    if((pte = walk(old, i, 0)) == 0)
    8000142c:	4601                	li	a2,0
    8000142e:	85ce                	mv	a1,s3
    80001430:	855a                	mv	a0,s6
    80001432:	abdff0ef          	jal	80000eee <walk>
    80001436:	c121                	beqz	a0,80001476 <uvmcopy+0x6a>
      panic("uvmcopy: pte should exist");
    if((*pte & PTE_V) == 0)
    80001438:	6118                	ld	a4,0(a0)
    8000143a:	00177793          	and	a5,a4,1
    8000143e:	c3b1                	beqz	a5,80001482 <uvmcopy+0x76>
      panic("uvmcopy: page not present");
    pa = PTE2PA(*pte);
    80001440:	00a75593          	srl	a1,a4,0xa
    80001444:	00c59b93          	sll	s7,a1,0xc
    flags = PTE_FLAGS(*pte);
    80001448:	3ff77493          	and	s1,a4,1023
    if((mem = kalloc()) == 0)
    8000144c:	e84ff0ef          	jal	80000ad0 <kalloc>
    80001450:	892a                	mv	s2,a0
    80001452:	c129                	beqz	a0,80001494 <uvmcopy+0x88>
      goto err;
    memmove(mem, (char*)pa, PGSIZE);
    80001454:	6605                	lui	a2,0x1
    80001456:	85de                	mv	a1,s7
    80001458:	879ff0ef          	jal	80000cd0 <memmove>
    if(mappages(new, i, PGSIZE, (uint64)mem, flags) != 0){
    8000145c:	8726                	mv	a4,s1
    8000145e:	86ca                	mv	a3,s2
    80001460:	6605                	lui	a2,0x1
    80001462:	85ce                	mv	a1,s3
    80001464:	8556                	mv	a0,s5
    80001466:	b61ff0ef          	jal	80000fc6 <mappages>
    8000146a:	e115                	bnez	a0,8000148e <uvmcopy+0x82>
  for(i = 0; i < sz; i += PGSIZE){
    8000146c:	6785                	lui	a5,0x1
    8000146e:	99be                	add	s3,s3,a5
    80001470:	fb49eee3          	bltu	s3,s4,8000142c <uvmcopy+0x20>
    80001474:	a805                	j	800014a4 <uvmcopy+0x98>
      panic("uvmcopy: pte should exist");
    80001476:	00006517          	auipc	a0,0x6
    8000147a:	d4a50513          	add	a0,a0,-694 # 800071c0 <digits+0x188>
    8000147e:	ae0ff0ef          	jal	8000075e <panic>
      panic("uvmcopy: page not present");
    80001482:	00006517          	auipc	a0,0x6
    80001486:	d5e50513          	add	a0,a0,-674 # 800071e0 <digits+0x1a8>
    8000148a:	ad4ff0ef          	jal	8000075e <panic>
      kfree(mem);
    8000148e:	854a                	mv	a0,s2
    80001490:	d5eff0ef          	jal	800009ee <kfree>
    }
  }
  return 0;

 err:
  uvmunmap(new, 0, i / PGSIZE, 1);
    80001494:	4685                	li	a3,1
    80001496:	00c9d613          	srl	a2,s3,0xc
    8000149a:	4581                	li	a1,0
    8000149c:	8556                	mv	a0,s5
    8000149e:	ccfff0ef          	jal	8000116c <uvmunmap>
  return -1;
    800014a2:	557d                	li	a0,-1
}
    800014a4:	60a6                	ld	ra,72(sp)
    800014a6:	6406                	ld	s0,64(sp)
    800014a8:	74e2                	ld	s1,56(sp)
    800014aa:	7942                	ld	s2,48(sp)
    800014ac:	79a2                	ld	s3,40(sp)
    800014ae:	7a02                	ld	s4,32(sp)
    800014b0:	6ae2                	ld	s5,24(sp)
    800014b2:	6b42                	ld	s6,16(sp)
    800014b4:	6ba2                	ld	s7,8(sp)
    800014b6:	6161                	add	sp,sp,80
    800014b8:	8082                	ret
  return 0;
    800014ba:	4501                	li	a0,0
}
    800014bc:	8082                	ret

00000000800014be <uvmclear>:

/* mark a PTE invalid for user access. */
/* used by exec for the user stack guard page. */
void
uvmclear(pagetable_t pagetable, uint64 va)
{
    800014be:	1141                	add	sp,sp,-16
    800014c0:	e406                	sd	ra,8(sp)
    800014c2:	e022                	sd	s0,0(sp)
    800014c4:	0800                	add	s0,sp,16
  pte_t *pte;
  
  pte = walk(pagetable, va, 0);
    800014c6:	4601                	li	a2,0
    800014c8:	a27ff0ef          	jal	80000eee <walk>
  if(pte == 0)
    800014cc:	c901                	beqz	a0,800014dc <uvmclear+0x1e>
    panic("uvmclear");
  *pte &= ~PTE_U;
    800014ce:	611c                	ld	a5,0(a0)
    800014d0:	9bbd                	and	a5,a5,-17
    800014d2:	e11c                	sd	a5,0(a0)
}
    800014d4:	60a2                	ld	ra,8(sp)
    800014d6:	6402                	ld	s0,0(sp)
    800014d8:	0141                	add	sp,sp,16
    800014da:	8082                	ret
    panic("uvmclear");
    800014dc:	00006517          	auipc	a0,0x6
    800014e0:	d2450513          	add	a0,a0,-732 # 80007200 <digits+0x1c8>
    800014e4:	a7aff0ef          	jal	8000075e <panic>

00000000800014e8 <copyout>:
copyout(pagetable_t pagetable, uint64 dstva, char *src, uint64 len)
{
  uint64 n, va0, pa0;
  pte_t *pte;

  while(len > 0){
    800014e8:	c6c9                	beqz	a3,80001572 <copyout+0x8a>
{
    800014ea:	711d                	add	sp,sp,-96
    800014ec:	ec86                	sd	ra,88(sp)
    800014ee:	e8a2                	sd	s0,80(sp)
    800014f0:	e4a6                	sd	s1,72(sp)
    800014f2:	e0ca                	sd	s2,64(sp)
    800014f4:	fc4e                	sd	s3,56(sp)
    800014f6:	f852                	sd	s4,48(sp)
    800014f8:	f456                	sd	s5,40(sp)
    800014fa:	f05a                	sd	s6,32(sp)
    800014fc:	ec5e                	sd	s7,24(sp)
    800014fe:	e862                	sd	s8,16(sp)
    80001500:	e466                	sd	s9,8(sp)
    80001502:	e06a                	sd	s10,0(sp)
    80001504:	1080                	add	s0,sp,96
    80001506:	8baa                	mv	s7,a0
    80001508:	8aae                	mv	s5,a1
    8000150a:	8b32                	mv	s6,a2
    8000150c:	89b6                	mv	s3,a3
    va0 = PGROUNDDOWN(dstva);
    8000150e:	74fd                	lui	s1,0xfffff
    80001510:	8ced                	and	s1,s1,a1
    if(va0 >= MAXVA)
    80001512:	57fd                	li	a5,-1
    80001514:	83e9                	srl	a5,a5,0x1a
    80001516:	0697e063          	bltu	a5,s1,80001576 <copyout+0x8e>
      return -1;
    pte = walk(pagetable, va0, 0);
    if(pte == 0 || (*pte & PTE_V) == 0 || (*pte & PTE_U) == 0 ||
    8000151a:	4cd5                	li	s9,21
    8000151c:	6d05                	lui	s10,0x1
    if(va0 >= MAXVA)
    8000151e:	8c3e                	mv	s8,a5
    80001520:	a025                	j	80001548 <copyout+0x60>
       (*pte & PTE_W) == 0)
      return -1;
    pa0 = PTE2PA(*pte);
    80001522:	83a9                	srl	a5,a5,0xa
    80001524:	07b2                	sll	a5,a5,0xc
    n = PGSIZE - (dstva - va0);
    if(n > len)
      n = len;
    memmove((void *)(pa0 + (dstva - va0)), src, n);
    80001526:	409a8533          	sub	a0,s5,s1
    8000152a:	0009061b          	sext.w	a2,s2
    8000152e:	85da                	mv	a1,s6
    80001530:	953e                	add	a0,a0,a5
    80001532:	f9eff0ef          	jal	80000cd0 <memmove>

    len -= n;
    80001536:	412989b3          	sub	s3,s3,s2
    src += n;
    8000153a:	9b4a                	add	s6,s6,s2
  while(len > 0){
    8000153c:	02098963          	beqz	s3,8000156e <copyout+0x86>
    if(va0 >= MAXVA)
    80001540:	034c6d63          	bltu	s8,s4,8000157a <copyout+0x92>
    va0 = PGROUNDDOWN(dstva);
    80001544:	84d2                	mv	s1,s4
    dstva = va0 + PGSIZE;
    80001546:	8ad2                	mv	s5,s4
    pte = walk(pagetable, va0, 0);
    80001548:	4601                	li	a2,0
    8000154a:	85a6                	mv	a1,s1
    8000154c:	855e                	mv	a0,s7
    8000154e:	9a1ff0ef          	jal	80000eee <walk>
    if(pte == 0 || (*pte & PTE_V) == 0 || (*pte & PTE_U) == 0 ||
    80001552:	c515                	beqz	a0,8000157e <copyout+0x96>
    80001554:	611c                	ld	a5,0(a0)
    80001556:	0157f713          	and	a4,a5,21
    8000155a:	05971163          	bne	a4,s9,8000159c <copyout+0xb4>
    n = PGSIZE - (dstva - va0);
    8000155e:	01a48a33          	add	s4,s1,s10
    80001562:	415a0933          	sub	s2,s4,s5
    80001566:	fb29fee3          	bgeu	s3,s2,80001522 <copyout+0x3a>
    8000156a:	894e                	mv	s2,s3
    8000156c:	bf5d                	j	80001522 <copyout+0x3a>
  }
  return 0;
    8000156e:	4501                	li	a0,0
    80001570:	a801                	j	80001580 <copyout+0x98>
    80001572:	4501                	li	a0,0
}
    80001574:	8082                	ret
      return -1;
    80001576:	557d                	li	a0,-1
    80001578:	a021                	j	80001580 <copyout+0x98>
    8000157a:	557d                	li	a0,-1
    8000157c:	a011                	j	80001580 <copyout+0x98>
      return -1;
    8000157e:	557d                	li	a0,-1
}
    80001580:	60e6                	ld	ra,88(sp)
    80001582:	6446                	ld	s0,80(sp)
    80001584:	64a6                	ld	s1,72(sp)
    80001586:	6906                	ld	s2,64(sp)
    80001588:	79e2                	ld	s3,56(sp)
    8000158a:	7a42                	ld	s4,48(sp)
    8000158c:	7aa2                	ld	s5,40(sp)
    8000158e:	7b02                	ld	s6,32(sp)
    80001590:	6be2                	ld	s7,24(sp)
    80001592:	6c42                	ld	s8,16(sp)
    80001594:	6ca2                	ld	s9,8(sp)
    80001596:	6d02                	ld	s10,0(sp)
    80001598:	6125                	add	sp,sp,96
    8000159a:	8082                	ret
      return -1;
    8000159c:	557d                	li	a0,-1
    8000159e:	b7cd                	j	80001580 <copyout+0x98>

00000000800015a0 <copyin>:
int
copyin(pagetable_t pagetable, char *dst, uint64 srcva, uint64 len)
{
  uint64 n, va0, pa0;

  while(len > 0){
    800015a0:	c6a5                	beqz	a3,80001608 <copyin+0x68>
{
    800015a2:	715d                	add	sp,sp,-80
    800015a4:	e486                	sd	ra,72(sp)
    800015a6:	e0a2                	sd	s0,64(sp)
    800015a8:	fc26                	sd	s1,56(sp)
    800015aa:	f84a                	sd	s2,48(sp)
    800015ac:	f44e                	sd	s3,40(sp)
    800015ae:	f052                	sd	s4,32(sp)
    800015b0:	ec56                	sd	s5,24(sp)
    800015b2:	e85a                	sd	s6,16(sp)
    800015b4:	e45e                	sd	s7,8(sp)
    800015b6:	e062                	sd	s8,0(sp)
    800015b8:	0880                	add	s0,sp,80
    800015ba:	8b2a                	mv	s6,a0
    800015bc:	8a2e                	mv	s4,a1
    800015be:	8c32                	mv	s8,a2
    800015c0:	89b6                	mv	s3,a3
    va0 = PGROUNDDOWN(srcva);
    800015c2:	7bfd                	lui	s7,0xfffff
    pa0 = walkaddr(pagetable, va0);
    if(pa0 == 0)
      return -1;
    n = PGSIZE - (srcva - va0);
    800015c4:	6a85                	lui	s5,0x1
    800015c6:	a00d                	j	800015e8 <copyin+0x48>
    if(n > len)
      n = len;
    memmove(dst, (void *)(pa0 + (srcva - va0)), n);
    800015c8:	018505b3          	add	a1,a0,s8
    800015cc:	0004861b          	sext.w	a2,s1
    800015d0:	412585b3          	sub	a1,a1,s2
    800015d4:	8552                	mv	a0,s4
    800015d6:	efaff0ef          	jal	80000cd0 <memmove>

    len -= n;
    800015da:	409989b3          	sub	s3,s3,s1
    dst += n;
    800015de:	9a26                	add	s4,s4,s1
    srcva = va0 + PGSIZE;
    800015e0:	01590c33          	add	s8,s2,s5
  while(len > 0){
    800015e4:	02098063          	beqz	s3,80001604 <copyin+0x64>
    va0 = PGROUNDDOWN(srcva);
    800015e8:	017c7933          	and	s2,s8,s7
    pa0 = walkaddr(pagetable, va0);
    800015ec:	85ca                	mv	a1,s2
    800015ee:	855a                	mv	a0,s6
    800015f0:	999ff0ef          	jal	80000f88 <walkaddr>
    if(pa0 == 0)
    800015f4:	cd01                	beqz	a0,8000160c <copyin+0x6c>
    n = PGSIZE - (srcva - va0);
    800015f6:	418904b3          	sub	s1,s2,s8
    800015fa:	94d6                	add	s1,s1,s5
    800015fc:	fc99f6e3          	bgeu	s3,s1,800015c8 <copyin+0x28>
    80001600:	84ce                	mv	s1,s3
    80001602:	b7d9                	j	800015c8 <copyin+0x28>
  }
  return 0;
    80001604:	4501                	li	a0,0
    80001606:	a021                	j	8000160e <copyin+0x6e>
    80001608:	4501                	li	a0,0
}
    8000160a:	8082                	ret
      return -1;
    8000160c:	557d                	li	a0,-1
}
    8000160e:	60a6                	ld	ra,72(sp)
    80001610:	6406                	ld	s0,64(sp)
    80001612:	74e2                	ld	s1,56(sp)
    80001614:	7942                	ld	s2,48(sp)
    80001616:	79a2                	ld	s3,40(sp)
    80001618:	7a02                	ld	s4,32(sp)
    8000161a:	6ae2                	ld	s5,24(sp)
    8000161c:	6b42                	ld	s6,16(sp)
    8000161e:	6ba2                	ld	s7,8(sp)
    80001620:	6c02                	ld	s8,0(sp)
    80001622:	6161                	add	sp,sp,80
    80001624:	8082                	ret

0000000080001626 <copyinstr>:
copyinstr(pagetable_t pagetable, char *dst, uint64 srcva, uint64 max)
{
  uint64 n, va0, pa0;
  int got_null = 0;

  while(got_null == 0 && max > 0){
    80001626:	c2cd                	beqz	a3,800016c8 <copyinstr+0xa2>
{
    80001628:	715d                	add	sp,sp,-80
    8000162a:	e486                	sd	ra,72(sp)
    8000162c:	e0a2                	sd	s0,64(sp)
    8000162e:	fc26                	sd	s1,56(sp)
    80001630:	f84a                	sd	s2,48(sp)
    80001632:	f44e                	sd	s3,40(sp)
    80001634:	f052                	sd	s4,32(sp)
    80001636:	ec56                	sd	s5,24(sp)
    80001638:	e85a                	sd	s6,16(sp)
    8000163a:	e45e                	sd	s7,8(sp)
    8000163c:	0880                	add	s0,sp,80
    8000163e:	8a2a                	mv	s4,a0
    80001640:	8b2e                	mv	s6,a1
    80001642:	8bb2                	mv	s7,a2
    80001644:	84b6                	mv	s1,a3
    va0 = PGROUNDDOWN(srcva);
    80001646:	7afd                	lui	s5,0xfffff
    pa0 = walkaddr(pagetable, va0);
    if(pa0 == 0)
      return -1;
    n = PGSIZE - (srcva - va0);
    80001648:	6985                	lui	s3,0x1
    8000164a:	a02d                	j	80001674 <copyinstr+0x4e>
      n = max;

    char *p = (char *) (pa0 + (srcva - va0));
    while(n > 0){
      if(*p == '\0'){
        *dst = '\0';
    8000164c:	00078023          	sb	zero,0(a5) # 1000 <_entry-0x7ffff000>
    80001650:	4785                	li	a5,1
      dst++;
    }

    srcva = va0 + PGSIZE;
  }
  if(got_null){
    80001652:	37fd                	addw	a5,a5,-1
    80001654:	0007851b          	sext.w	a0,a5
    return 0;
  } else {
    return -1;
  }
}
    80001658:	60a6                	ld	ra,72(sp)
    8000165a:	6406                	ld	s0,64(sp)
    8000165c:	74e2                	ld	s1,56(sp)
    8000165e:	7942                	ld	s2,48(sp)
    80001660:	79a2                	ld	s3,40(sp)
    80001662:	7a02                	ld	s4,32(sp)
    80001664:	6ae2                	ld	s5,24(sp)
    80001666:	6b42                	ld	s6,16(sp)
    80001668:	6ba2                	ld	s7,8(sp)
    8000166a:	6161                	add	sp,sp,80
    8000166c:	8082                	ret
    srcva = va0 + PGSIZE;
    8000166e:	01390bb3          	add	s7,s2,s3
  while(got_null == 0 && max > 0){
    80001672:	c4b9                	beqz	s1,800016c0 <copyinstr+0x9a>
    va0 = PGROUNDDOWN(srcva);
    80001674:	015bf933          	and	s2,s7,s5
    pa0 = walkaddr(pagetable, va0);
    80001678:	85ca                	mv	a1,s2
    8000167a:	8552                	mv	a0,s4
    8000167c:	90dff0ef          	jal	80000f88 <walkaddr>
    if(pa0 == 0)
    80001680:	c131                	beqz	a0,800016c4 <copyinstr+0x9e>
    n = PGSIZE - (srcva - va0);
    80001682:	417906b3          	sub	a3,s2,s7
    80001686:	96ce                	add	a3,a3,s3
    80001688:	00d4f363          	bgeu	s1,a3,8000168e <copyinstr+0x68>
    8000168c:	86a6                	mv	a3,s1
    char *p = (char *) (pa0 + (srcva - va0));
    8000168e:	955e                	add	a0,a0,s7
    80001690:	41250533          	sub	a0,a0,s2
    while(n > 0){
    80001694:	dee9                	beqz	a3,8000166e <copyinstr+0x48>
    80001696:	87da                	mv	a5,s6
    80001698:	885a                	mv	a6,s6
      if(*p == '\0'){
    8000169a:	41650633          	sub	a2,a0,s6
    while(n > 0){
    8000169e:	96da                	add	a3,a3,s6
    800016a0:	85be                	mv	a1,a5
      if(*p == '\0'){
    800016a2:	00f60733          	add	a4,a2,a5
    800016a6:	00074703          	lbu	a4,0(a4)
    800016aa:	d34d                	beqz	a4,8000164c <copyinstr+0x26>
        *dst = *p;
    800016ac:	00e78023          	sb	a4,0(a5)
      dst++;
    800016b0:	0785                	add	a5,a5,1
    while(n > 0){
    800016b2:	fed797e3          	bne	a5,a3,800016a0 <copyinstr+0x7a>
    800016b6:	14fd                	add	s1,s1,-1 # ffffffffffffefff <end+0xffffffff7ffde03f>
    800016b8:	94c2                	add	s1,s1,a6
      --max;
    800016ba:	8c8d                	sub	s1,s1,a1
      dst++;
    800016bc:	8b3e                	mv	s6,a5
    800016be:	bf45                	j	8000166e <copyinstr+0x48>
    800016c0:	4781                	li	a5,0
    800016c2:	bf41                	j	80001652 <copyinstr+0x2c>
      return -1;
    800016c4:	557d                	li	a0,-1
    800016c6:	bf49                	j	80001658 <copyinstr+0x32>
  int got_null = 0;
    800016c8:	4781                	li	a5,0
  if(got_null){
    800016ca:	37fd                	addw	a5,a5,-1
    800016cc:	0007851b          	sext.w	a0,a5
}
    800016d0:	8082                	ret

00000000800016d2 <proc_mapstacks>:
/* Allocate a page for each process's kernel stack. */
/* Map it high in memory, followed by an invalid */
/* guard page. */
void
proc_mapstacks(pagetable_t kpgtbl)
{
    800016d2:	7139                	add	sp,sp,-64
    800016d4:	fc06                	sd	ra,56(sp)
    800016d6:	f822                	sd	s0,48(sp)
    800016d8:	f426                	sd	s1,40(sp)
    800016da:	f04a                	sd	s2,32(sp)
    800016dc:	ec4e                	sd	s3,24(sp)
    800016de:	e852                	sd	s4,16(sp)
    800016e0:	e456                	sd	s5,8(sp)
    800016e2:	e05a                	sd	s6,0(sp)
    800016e4:	0080                	add	s0,sp,64
    800016e6:	89aa                	mv	s3,a0
  struct proc *p;
  
  for(p = proc; p < &proc[NPROC]; p++) {
    800016e8:	0000f497          	auipc	s1,0xf
    800016ec:	8f848493          	add	s1,s1,-1800 # 8000ffe0 <proc>
    char *pa = kalloc();
    if(pa == 0)
      panic("kalloc");
    uint64 va = KSTACK((int) (p - proc));
    800016f0:	8b26                	mv	s6,s1
    800016f2:	00006a97          	auipc	s5,0x6
    800016f6:	90ea8a93          	add	s5,s5,-1778 # 80007000 <etext>
    800016fa:	04000937          	lui	s2,0x4000
    800016fe:	197d                	add	s2,s2,-1 # 3ffffff <_entry-0x7c000001>
    80001700:	0932                	sll	s2,s2,0xc
  for(p = proc; p < &proc[NPROC]; p++) {
    80001702:	00014a17          	auipc	s4,0x14
    80001706:	4dea0a13          	add	s4,s4,1246 # 80015be0 <tickslock>
    char *pa = kalloc();
    8000170a:	bc6ff0ef          	jal	80000ad0 <kalloc>
    8000170e:	862a                	mv	a2,a0
    if(pa == 0)
    80001710:	c121                	beqz	a0,80001750 <proc_mapstacks+0x7e>
    uint64 va = KSTACK((int) (p - proc));
    80001712:	416485b3          	sub	a1,s1,s6
    80001716:	8591                	sra	a1,a1,0x4
    80001718:	000ab783          	ld	a5,0(s5)
    8000171c:	02f585b3          	mul	a1,a1,a5
    80001720:	2585                	addw	a1,a1,1
    80001722:	00d5959b          	sllw	a1,a1,0xd
    kvmmap(kpgtbl, va, (uint64)pa, PGSIZE, PTE_R | PTE_W);
    80001726:	4719                	li	a4,6
    80001728:	6685                	lui	a3,0x1
    8000172a:	40b905b3          	sub	a1,s2,a1
    8000172e:	854e                	mv	a0,s3
    80001730:	947ff0ef          	jal	80001076 <kvmmap>
  for(p = proc; p < &proc[NPROC]; p++) {
    80001734:	17048493          	add	s1,s1,368
    80001738:	fd4499e3          	bne	s1,s4,8000170a <proc_mapstacks+0x38>
  }
}
    8000173c:	70e2                	ld	ra,56(sp)
    8000173e:	7442                	ld	s0,48(sp)
    80001740:	74a2                	ld	s1,40(sp)
    80001742:	7902                	ld	s2,32(sp)
    80001744:	69e2                	ld	s3,24(sp)
    80001746:	6a42                	ld	s4,16(sp)
    80001748:	6aa2                	ld	s5,8(sp)
    8000174a:	6b02                	ld	s6,0(sp)
    8000174c:	6121                	add	sp,sp,64
    8000174e:	8082                	ret
      panic("kalloc");
    80001750:	00006517          	auipc	a0,0x6
    80001754:	ac050513          	add	a0,a0,-1344 # 80007210 <digits+0x1d8>
    80001758:	806ff0ef          	jal	8000075e <panic>

000000008000175c <procinit>:

/* initialize the proc table. */
void
procinit(void)
{
    8000175c:	7139                	add	sp,sp,-64
    8000175e:	fc06                	sd	ra,56(sp)
    80001760:	f822                	sd	s0,48(sp)
    80001762:	f426                	sd	s1,40(sp)
    80001764:	f04a                	sd	s2,32(sp)
    80001766:	ec4e                	sd	s3,24(sp)
    80001768:	e852                	sd	s4,16(sp)
    8000176a:	e456                	sd	s5,8(sp)
    8000176c:	e05a                	sd	s6,0(sp)
    8000176e:	0080                	add	s0,sp,64
  struct proc *p;
  
  initlock(&pid_lock, "nextpid");
    80001770:	00006597          	auipc	a1,0x6
    80001774:	aa858593          	add	a1,a1,-1368 # 80007218 <digits+0x1e0>
    80001778:	0000e517          	auipc	a0,0xe
    8000177c:	43850513          	add	a0,a0,1080 # 8000fbb0 <pid_lock>
    80001780:	ba0ff0ef          	jal	80000b20 <initlock>
  initlock(&wait_lock, "wait_lock");
    80001784:	00006597          	auipc	a1,0x6
    80001788:	a9c58593          	add	a1,a1,-1380 # 80007220 <digits+0x1e8>
    8000178c:	0000e517          	auipc	a0,0xe
    80001790:	43c50513          	add	a0,a0,1084 # 8000fbc8 <wait_lock>
    80001794:	b8cff0ef          	jal	80000b20 <initlock>
  for(p = proc; p < &proc[NPROC]; p++) {
    80001798:	0000f497          	auipc	s1,0xf
    8000179c:	84848493          	add	s1,s1,-1976 # 8000ffe0 <proc>
      initlock(&p->lock, "proc");
    800017a0:	00006b17          	auipc	s6,0x6
    800017a4:	a90b0b13          	add	s6,s6,-1392 # 80007230 <digits+0x1f8>
      p->state = UNUSED;
      p->kstack = KSTACK((int) (p - proc));
    800017a8:	8aa6                	mv	s5,s1
    800017aa:	00006a17          	auipc	s4,0x6
    800017ae:	856a0a13          	add	s4,s4,-1962 # 80007000 <etext>
    800017b2:	04000937          	lui	s2,0x4000
    800017b6:	197d                	add	s2,s2,-1 # 3ffffff <_entry-0x7c000001>
    800017b8:	0932                	sll	s2,s2,0xc
  for(p = proc; p < &proc[NPROC]; p++) {
    800017ba:	00014997          	auipc	s3,0x14
    800017be:	42698993          	add	s3,s3,1062 # 80015be0 <tickslock>
      initlock(&p->lock, "proc");
    800017c2:	85da                	mv	a1,s6
    800017c4:	8526                	mv	a0,s1
    800017c6:	b5aff0ef          	jal	80000b20 <initlock>
      p->state = UNUSED;
    800017ca:	0004ac23          	sw	zero,24(s1)
      p->kstack = KSTACK((int) (p - proc));
    800017ce:	415487b3          	sub	a5,s1,s5
    800017d2:	8791                	sra	a5,a5,0x4
    800017d4:	000a3703          	ld	a4,0(s4)
    800017d8:	02e787b3          	mul	a5,a5,a4
    800017dc:	2785                	addw	a5,a5,1
    800017de:	00d7979b          	sllw	a5,a5,0xd
    800017e2:	40f907b3          	sub	a5,s2,a5
    800017e6:	e4bc                	sd	a5,72(s1)
  for(p = proc; p < &proc[NPROC]; p++) {
    800017e8:	17048493          	add	s1,s1,368
    800017ec:	fd349be3          	bne	s1,s3,800017c2 <procinit+0x66>
  }
}
    800017f0:	70e2                	ld	ra,56(sp)
    800017f2:	7442                	ld	s0,48(sp)
    800017f4:	74a2                	ld	s1,40(sp)
    800017f6:	7902                	ld	s2,32(sp)
    800017f8:	69e2                	ld	s3,24(sp)
    800017fa:	6a42                	ld	s4,16(sp)
    800017fc:	6aa2                	ld	s5,8(sp)
    800017fe:	6b02                	ld	s6,0(sp)
    80001800:	6121                	add	sp,sp,64
    80001802:	8082                	ret

0000000080001804 <cpuid>:
/* Must be called with interrupts disabled, */
/* to prevent race with process being moved */
/* to a different CPU. */
int
cpuid()
{
    80001804:	1141                	add	sp,sp,-16
    80001806:	e422                	sd	s0,8(sp)
    80001808:	0800                	add	s0,sp,16
  asm volatile("mv %0, tp" : "=r" (x) );
    8000180a:	8512                	mv	a0,tp
  int id = r_tp();
  return id;
}
    8000180c:	2501                	sext.w	a0,a0
    8000180e:	6422                	ld	s0,8(sp)
    80001810:	0141                	add	sp,sp,16
    80001812:	8082                	ret

0000000080001814 <mycpu>:

/* Return this CPU's cpu struct. */
/* Interrupts must be disabled. */
struct cpu*
mycpu(void)
{
    80001814:	1141                	add	sp,sp,-16
    80001816:	e422                	sd	s0,8(sp)
    80001818:	0800                	add	s0,sp,16
    8000181a:	8792                	mv	a5,tp
  int id = cpuid();
  struct cpu *c = &cpus[id];
    8000181c:	2781                	sext.w	a5,a5
    8000181e:	079e                	sll	a5,a5,0x7
  return c;
}
    80001820:	0000e517          	auipc	a0,0xe
    80001824:	3c050513          	add	a0,a0,960 # 8000fbe0 <cpus>
    80001828:	953e                	add	a0,a0,a5
    8000182a:	6422                	ld	s0,8(sp)
    8000182c:	0141                	add	sp,sp,16
    8000182e:	8082                	ret

0000000080001830 <myproc>:

/* Return the current struct proc *, or zero if none. */
struct proc*
myproc(void)
{
    80001830:	1101                	add	sp,sp,-32
    80001832:	ec06                	sd	ra,24(sp)
    80001834:	e822                	sd	s0,16(sp)
    80001836:	e426                	sd	s1,8(sp)
    80001838:	1000                	add	s0,sp,32
  push_off();
    8000183a:	b26ff0ef          	jal	80000b60 <push_off>
    8000183e:	8792                	mv	a5,tp
  struct cpu *c = mycpu();
  struct proc *p = c->proc;
    80001840:	2781                	sext.w	a5,a5
    80001842:	079e                	sll	a5,a5,0x7
    80001844:	0000e717          	auipc	a4,0xe
    80001848:	36c70713          	add	a4,a4,876 # 8000fbb0 <pid_lock>
    8000184c:	97ba                	add	a5,a5,a4
    8000184e:	7b84                	ld	s1,48(a5)
  pop_off();
    80001850:	b94ff0ef          	jal	80000be4 <pop_off>
  return p;
}
    80001854:	8526                	mv	a0,s1
    80001856:	60e2                	ld	ra,24(sp)
    80001858:	6442                	ld	s0,16(sp)
    8000185a:	64a2                	ld	s1,8(sp)
    8000185c:	6105                	add	sp,sp,32
    8000185e:	8082                	ret

0000000080001860 <forkret>:

/* A fork child's very first scheduling by scheduler() */
/* will swtch to forkret. */
void
forkret(void)
{
    80001860:	1141                	add	sp,sp,-16
    80001862:	e406                	sd	ra,8(sp)
    80001864:	e022                	sd	s0,0(sp)
    80001866:	0800                	add	s0,sp,16
  static int first = 1;

  /* Still holding p->lock from scheduler. */
  release(&myproc()->lock);
    80001868:	fc9ff0ef          	jal	80001830 <myproc>
    8000186c:	bccff0ef          	jal	80000c38 <release>

  if (first) {
    80001870:	00006797          	auipc	a5,0x6
    80001874:	1907a783          	lw	a5,400(a5) # 80007a00 <first.1>
    80001878:	e799                	bnez	a5,80001886 <forkret+0x26>
    first = 0;
    /* ensure other cores see first=0. */
    __sync_synchronize();
  }

  usertrapret();
    8000187a:	2c9000ef          	jal	80002342 <usertrapret>
}
    8000187e:	60a2                	ld	ra,8(sp)
    80001880:	6402                	ld	s0,0(sp)
    80001882:	0141                	add	sp,sp,16
    80001884:	8082                	ret
    fsinit(ROOTDEV);
    80001886:	4505                	li	a0,1
    80001888:	694010ef          	jal	80002f1c <fsinit>
    first = 0;
    8000188c:	00006797          	auipc	a5,0x6
    80001890:	1607aa23          	sw	zero,372(a5) # 80007a00 <first.1>
    __sync_synchronize();
    80001894:	0ff0000f          	fence
    80001898:	b7cd                	j	8000187a <forkret+0x1a>

000000008000189a <allocpid>:
{
    8000189a:	1101                	add	sp,sp,-32
    8000189c:	ec06                	sd	ra,24(sp)
    8000189e:	e822                	sd	s0,16(sp)
    800018a0:	e426                	sd	s1,8(sp)
    800018a2:	e04a                	sd	s2,0(sp)
    800018a4:	1000                	add	s0,sp,32
  acquire(&pid_lock);
    800018a6:	0000e917          	auipc	s2,0xe
    800018aa:	30a90913          	add	s2,s2,778 # 8000fbb0 <pid_lock>
    800018ae:	854a                	mv	a0,s2
    800018b0:	af0ff0ef          	jal	80000ba0 <acquire>
  pid = nextpid;
    800018b4:	00006797          	auipc	a5,0x6
    800018b8:	15078793          	add	a5,a5,336 # 80007a04 <nextpid>
    800018bc:	4384                	lw	s1,0(a5)
  nextpid = nextpid + 1;
    800018be:	0014871b          	addw	a4,s1,1
    800018c2:	c398                	sw	a4,0(a5)
  release(&pid_lock);
    800018c4:	854a                	mv	a0,s2
    800018c6:	b72ff0ef          	jal	80000c38 <release>
}
    800018ca:	8526                	mv	a0,s1
    800018cc:	60e2                	ld	ra,24(sp)
    800018ce:	6442                	ld	s0,16(sp)
    800018d0:	64a2                	ld	s1,8(sp)
    800018d2:	6902                	ld	s2,0(sp)
    800018d4:	6105                	add	sp,sp,32
    800018d6:	8082                	ret

00000000800018d8 <proc_pagetable>:
{
    800018d8:	1101                	add	sp,sp,-32
    800018da:	ec06                	sd	ra,24(sp)
    800018dc:	e822                	sd	s0,16(sp)
    800018de:	e426                	sd	s1,8(sp)
    800018e0:	e04a                	sd	s2,0(sp)
    800018e2:	1000                	add	s0,sp,32
    800018e4:	892a                	mv	s2,a0
  pagetable = uvmcreate();
    800018e6:	933ff0ef          	jal	80001218 <uvmcreate>
    800018ea:	84aa                	mv	s1,a0
  if(pagetable == 0)
    800018ec:	cd05                	beqz	a0,80001924 <proc_pagetable+0x4c>
  if(mappages(pagetable, TRAMPOLINE, PGSIZE,
    800018ee:	4729                	li	a4,10
    800018f0:	00004697          	auipc	a3,0x4
    800018f4:	71068693          	add	a3,a3,1808 # 80006000 <_trampoline>
    800018f8:	6605                	lui	a2,0x1
    800018fa:	040005b7          	lui	a1,0x4000
    800018fe:	15fd                	add	a1,a1,-1 # 3ffffff <_entry-0x7c000001>
    80001900:	05b2                	sll	a1,a1,0xc
    80001902:	ec4ff0ef          	jal	80000fc6 <mappages>
    80001906:	02054663          	bltz	a0,80001932 <proc_pagetable+0x5a>
  if(mappages(pagetable, TRAPFRAME, PGSIZE,
    8000190a:	4719                	li	a4,6
    8000190c:	06093683          	ld	a3,96(s2)
    80001910:	6605                	lui	a2,0x1
    80001912:	020005b7          	lui	a1,0x2000
    80001916:	15fd                	add	a1,a1,-1 # 1ffffff <_entry-0x7e000001>
    80001918:	05b6                	sll	a1,a1,0xd
    8000191a:	8526                	mv	a0,s1
    8000191c:	eaaff0ef          	jal	80000fc6 <mappages>
    80001920:	00054f63          	bltz	a0,8000193e <proc_pagetable+0x66>
}
    80001924:	8526                	mv	a0,s1
    80001926:	60e2                	ld	ra,24(sp)
    80001928:	6442                	ld	s0,16(sp)
    8000192a:	64a2                	ld	s1,8(sp)
    8000192c:	6902                	ld	s2,0(sp)
    8000192e:	6105                	add	sp,sp,32
    80001930:	8082                	ret
    uvmfree(pagetable, 0);
    80001932:	4581                	li	a1,0
    80001934:	8526                	mv	a0,s1
    80001936:	aa5ff0ef          	jal	800013da <uvmfree>
    return 0;
    8000193a:	4481                	li	s1,0
    8000193c:	b7e5                	j	80001924 <proc_pagetable+0x4c>
    uvmunmap(pagetable, TRAMPOLINE, 1, 0);
    8000193e:	4681                	li	a3,0
    80001940:	4605                	li	a2,1
    80001942:	040005b7          	lui	a1,0x4000
    80001946:	15fd                	add	a1,a1,-1 # 3ffffff <_entry-0x7c000001>
    80001948:	05b2                	sll	a1,a1,0xc
    8000194a:	8526                	mv	a0,s1
    8000194c:	821ff0ef          	jal	8000116c <uvmunmap>
    uvmfree(pagetable, 0);
    80001950:	4581                	li	a1,0
    80001952:	8526                	mv	a0,s1
    80001954:	a87ff0ef          	jal	800013da <uvmfree>
    return 0;
    80001958:	4481                	li	s1,0
    8000195a:	b7e9                	j	80001924 <proc_pagetable+0x4c>

000000008000195c <proc_freepagetable>:
{
    8000195c:	1101                	add	sp,sp,-32
    8000195e:	ec06                	sd	ra,24(sp)
    80001960:	e822                	sd	s0,16(sp)
    80001962:	e426                	sd	s1,8(sp)
    80001964:	e04a                	sd	s2,0(sp)
    80001966:	1000                	add	s0,sp,32
    80001968:	84aa                	mv	s1,a0
    8000196a:	892e                	mv	s2,a1
  uvmunmap(pagetable, TRAMPOLINE, 1, 0);
    8000196c:	4681                	li	a3,0
    8000196e:	4605                	li	a2,1
    80001970:	040005b7          	lui	a1,0x4000
    80001974:	15fd                	add	a1,a1,-1 # 3ffffff <_entry-0x7c000001>
    80001976:	05b2                	sll	a1,a1,0xc
    80001978:	ff4ff0ef          	jal	8000116c <uvmunmap>
  uvmunmap(pagetable, TRAPFRAME, 1, 0);
    8000197c:	4681                	li	a3,0
    8000197e:	4605                	li	a2,1
    80001980:	020005b7          	lui	a1,0x2000
    80001984:	15fd                	add	a1,a1,-1 # 1ffffff <_entry-0x7e000001>
    80001986:	05b6                	sll	a1,a1,0xd
    80001988:	8526                	mv	a0,s1
    8000198a:	fe2ff0ef          	jal	8000116c <uvmunmap>
  uvmfree(pagetable, sz);
    8000198e:	85ca                	mv	a1,s2
    80001990:	8526                	mv	a0,s1
    80001992:	a49ff0ef          	jal	800013da <uvmfree>
}
    80001996:	60e2                	ld	ra,24(sp)
    80001998:	6442                	ld	s0,16(sp)
    8000199a:	64a2                	ld	s1,8(sp)
    8000199c:	6902                	ld	s2,0(sp)
    8000199e:	6105                	add	sp,sp,32
    800019a0:	8082                	ret

00000000800019a2 <freeproc>:
{
    800019a2:	1101                	add	sp,sp,-32
    800019a4:	ec06                	sd	ra,24(sp)
    800019a6:	e822                	sd	s0,16(sp)
    800019a8:	e426                	sd	s1,8(sp)
    800019aa:	1000                	add	s0,sp,32
    800019ac:	84aa                	mv	s1,a0
  if(p->trapframe)
    800019ae:	7128                	ld	a0,96(a0)
    800019b0:	c119                	beqz	a0,800019b6 <freeproc+0x14>
    kfree((void*)p->trapframe);
    800019b2:	83cff0ef          	jal	800009ee <kfree>
  p->trapframe = 0;
    800019b6:	0604b023          	sd	zero,96(s1)
  if(p->pagetable)
    800019ba:	6ca8                	ld	a0,88(s1)
    800019bc:	c501                	beqz	a0,800019c4 <freeproc+0x22>
    proc_freepagetable(p->pagetable, p->sz);
    800019be:	68ac                	ld	a1,80(s1)
    800019c0:	f9dff0ef          	jal	8000195c <proc_freepagetable>
  p->pagetable = 0;
    800019c4:	0404bc23          	sd	zero,88(s1)
  p->sz = 0;
    800019c8:	0404b823          	sd	zero,80(s1)
  p->pid = 0;
    800019cc:	0204a823          	sw	zero,48(s1)
  p->parent = 0;
    800019d0:	0204bc23          	sd	zero,56(s1)
  p->name[0] = 0;
    800019d4:	16048023          	sb	zero,352(s1)
  p->chan = 0;
    800019d8:	0204b023          	sd	zero,32(s1)
  p->killed = 0;
    800019dc:	0204a423          	sw	zero,40(s1)
  p->xstate = 0;
    800019e0:	0204a623          	sw	zero,44(s1)
  p->state = UNUSED;
    800019e4:	0004ac23          	sw	zero,24(s1)
}
    800019e8:	60e2                	ld	ra,24(sp)
    800019ea:	6442                	ld	s0,16(sp)
    800019ec:	64a2                	ld	s1,8(sp)
    800019ee:	6105                	add	sp,sp,32
    800019f0:	8082                	ret

00000000800019f2 <allocproc>:
{
    800019f2:	1101                	add	sp,sp,-32
    800019f4:	ec06                	sd	ra,24(sp)
    800019f6:	e822                	sd	s0,16(sp)
    800019f8:	e426                	sd	s1,8(sp)
    800019fa:	e04a                	sd	s2,0(sp)
    800019fc:	1000                	add	s0,sp,32
  for(p = proc; p < &proc[NPROC]; p++) {
    800019fe:	0000e497          	auipc	s1,0xe
    80001a02:	5e248493          	add	s1,s1,1506 # 8000ffe0 <proc>
    80001a06:	00014917          	auipc	s2,0x14
    80001a0a:	1da90913          	add	s2,s2,474 # 80015be0 <tickslock>
    acquire(&p->lock);
    80001a0e:	8526                	mv	a0,s1
    80001a10:	990ff0ef          	jal	80000ba0 <acquire>
    if(p->state == UNUSED) {
    80001a14:	4c9c                	lw	a5,24(s1)
    80001a16:	cb91                	beqz	a5,80001a2a <allocproc+0x38>
      release(&p->lock);
    80001a18:	8526                	mv	a0,s1
    80001a1a:	a1eff0ef          	jal	80000c38 <release>
  for(p = proc; p < &proc[NPROC]; p++) {
    80001a1e:	17048493          	add	s1,s1,368
    80001a22:	ff2496e3          	bne	s1,s2,80001a0e <allocproc+0x1c>
  return 0;
    80001a26:	4481                	li	s1,0
    80001a28:	a099                	j	80001a6e <allocproc+0x7c>
  p->pid = allocpid();
    80001a2a:	e71ff0ef          	jal	8000189a <allocpid>
    80001a2e:	d888                	sw	a0,48(s1)
  p->state = USED;
    80001a30:	4785                	li	a5,1
    80001a32:	cc9c                	sw	a5,24(s1)
  p->trace_mask = 0;
    80001a34:	0404a023          	sw	zero,64(s1)
  if((p->trapframe = (struct trapframe *)kalloc()) == 0){
    80001a38:	898ff0ef          	jal	80000ad0 <kalloc>
    80001a3c:	892a                	mv	s2,a0
    80001a3e:	f0a8                	sd	a0,96(s1)
    80001a40:	cd15                	beqz	a0,80001a7c <allocproc+0x8a>
  p->pagetable = proc_pagetable(p);
    80001a42:	8526                	mv	a0,s1
    80001a44:	e95ff0ef          	jal	800018d8 <proc_pagetable>
    80001a48:	892a                	mv	s2,a0
    80001a4a:	eca8                	sd	a0,88(s1)
  if(p->pagetable == 0){
    80001a4c:	c121                	beqz	a0,80001a8c <allocproc+0x9a>
  memset(&p->context, 0, sizeof(p->context));
    80001a4e:	07000613          	li	a2,112
    80001a52:	4581                	li	a1,0
    80001a54:	06848513          	add	a0,s1,104
    80001a58:	a1cff0ef          	jal	80000c74 <memset>
  p->context.ra = (uint64)forkret;
    80001a5c:	00000797          	auipc	a5,0x0
    80001a60:	e0478793          	add	a5,a5,-508 # 80001860 <forkret>
    80001a64:	f4bc                	sd	a5,104(s1)
  p->context.sp = p->kstack + PGSIZE;
    80001a66:	64bc                	ld	a5,72(s1)
    80001a68:	6705                	lui	a4,0x1
    80001a6a:	97ba                	add	a5,a5,a4
    80001a6c:	f8bc                	sd	a5,112(s1)
}
    80001a6e:	8526                	mv	a0,s1
    80001a70:	60e2                	ld	ra,24(sp)
    80001a72:	6442                	ld	s0,16(sp)
    80001a74:	64a2                	ld	s1,8(sp)
    80001a76:	6902                	ld	s2,0(sp)
    80001a78:	6105                	add	sp,sp,32
    80001a7a:	8082                	ret
    freeproc(p);
    80001a7c:	8526                	mv	a0,s1
    80001a7e:	f25ff0ef          	jal	800019a2 <freeproc>
    release(&p->lock);
    80001a82:	8526                	mv	a0,s1
    80001a84:	9b4ff0ef          	jal	80000c38 <release>
    return 0;
    80001a88:	84ca                	mv	s1,s2
    80001a8a:	b7d5                	j	80001a6e <allocproc+0x7c>
    freeproc(p);
    80001a8c:	8526                	mv	a0,s1
    80001a8e:	f15ff0ef          	jal	800019a2 <freeproc>
    release(&p->lock);
    80001a92:	8526                	mv	a0,s1
    80001a94:	9a4ff0ef          	jal	80000c38 <release>
    return 0;
    80001a98:	84ca                	mv	s1,s2
    80001a9a:	bfd1                	j	80001a6e <allocproc+0x7c>

0000000080001a9c <userinit>:
{
    80001a9c:	1101                	add	sp,sp,-32
    80001a9e:	ec06                	sd	ra,24(sp)
    80001aa0:	e822                	sd	s0,16(sp)
    80001aa2:	e426                	sd	s1,8(sp)
    80001aa4:	1000                	add	s0,sp,32
  p = allocproc();
    80001aa6:	f4dff0ef          	jal	800019f2 <allocproc>
    80001aaa:	84aa                	mv	s1,a0
  initproc = p;
    80001aac:	00006797          	auipc	a5,0x6
    80001ab0:	fca7b623          	sd	a0,-52(a5) # 80007a78 <initproc>
  uvmfirst(p->pagetable, initcode, sizeof(initcode));
    80001ab4:	03400613          	li	a2,52
    80001ab8:	00006597          	auipc	a1,0x6
    80001abc:	f5858593          	add	a1,a1,-168 # 80007a10 <initcode>
    80001ac0:	6d28                	ld	a0,88(a0)
    80001ac2:	f7cff0ef          	jal	8000123e <uvmfirst>
  p->sz = PGSIZE;
    80001ac6:	6785                	lui	a5,0x1
    80001ac8:	e8bc                	sd	a5,80(s1)
  p->trapframe->epc = 0;      /* user program counter */
    80001aca:	70b8                	ld	a4,96(s1)
    80001acc:	00073c23          	sd	zero,24(a4) # 1018 <_entry-0x7fffefe8>
  p->trapframe->sp = PGSIZE;  /* user stack pointer */
    80001ad0:	70b8                	ld	a4,96(s1)
    80001ad2:	fb1c                	sd	a5,48(a4)
  safestrcpy(p->name, "initcode", sizeof(p->name));
    80001ad4:	4641                	li	a2,16
    80001ad6:	00005597          	auipc	a1,0x5
    80001ada:	76258593          	add	a1,a1,1890 # 80007238 <digits+0x200>
    80001ade:	16048513          	add	a0,s1,352
    80001ae2:	ad6ff0ef          	jal	80000db8 <safestrcpy>
  p->cwd = namei("/");
    80001ae6:	00005517          	auipc	a0,0x5
    80001aea:	76250513          	add	a0,a0,1890 # 80007248 <digits+0x210>
    80001aee:	509010ef          	jal	800037f6 <namei>
    80001af2:	14a4bc23          	sd	a0,344(s1)
  p->state = RUNNABLE;
    80001af6:	478d                	li	a5,3
    80001af8:	cc9c                	sw	a5,24(s1)
  release(&p->lock);
    80001afa:	8526                	mv	a0,s1
    80001afc:	93cff0ef          	jal	80000c38 <release>
}
    80001b00:	60e2                	ld	ra,24(sp)
    80001b02:	6442                	ld	s0,16(sp)
    80001b04:	64a2                	ld	s1,8(sp)
    80001b06:	6105                	add	sp,sp,32
    80001b08:	8082                	ret

0000000080001b0a <growproc>:
{
    80001b0a:	1101                	add	sp,sp,-32
    80001b0c:	ec06                	sd	ra,24(sp)
    80001b0e:	e822                	sd	s0,16(sp)
    80001b10:	e426                	sd	s1,8(sp)
    80001b12:	e04a                	sd	s2,0(sp)
    80001b14:	1000                	add	s0,sp,32
    80001b16:	892a                	mv	s2,a0
  struct proc *p = myproc();
    80001b18:	d19ff0ef          	jal	80001830 <myproc>
    80001b1c:	84aa                	mv	s1,a0
  sz = p->sz;
    80001b1e:	692c                	ld	a1,80(a0)
  if(n > 0){
    80001b20:	01204c63          	bgtz	s2,80001b38 <growproc+0x2e>
  } else if(n < 0){
    80001b24:	02094463          	bltz	s2,80001b4c <growproc+0x42>
  p->sz = sz;
    80001b28:	e8ac                	sd	a1,80(s1)
  return 0;
    80001b2a:	4501                	li	a0,0
}
    80001b2c:	60e2                	ld	ra,24(sp)
    80001b2e:	6442                	ld	s0,16(sp)
    80001b30:	64a2                	ld	s1,8(sp)
    80001b32:	6902                	ld	s2,0(sp)
    80001b34:	6105                	add	sp,sp,32
    80001b36:	8082                	ret
    if((sz = uvmalloc(p->pagetable, sz, sz + n, PTE_W)) == 0) {
    80001b38:	4691                	li	a3,4
    80001b3a:	00b90633          	add	a2,s2,a1
    80001b3e:	6d28                	ld	a0,88(a0)
    80001b40:	fa0ff0ef          	jal	800012e0 <uvmalloc>
    80001b44:	85aa                	mv	a1,a0
    80001b46:	f16d                	bnez	a0,80001b28 <growproc+0x1e>
      return -1;
    80001b48:	557d                	li	a0,-1
    80001b4a:	b7cd                	j	80001b2c <growproc+0x22>
    sz = uvmdealloc(p->pagetable, sz, sz + n);
    80001b4c:	00b90633          	add	a2,s2,a1
    80001b50:	6d28                	ld	a0,88(a0)
    80001b52:	f4aff0ef          	jal	8000129c <uvmdealloc>
    80001b56:	85aa                	mv	a1,a0
    80001b58:	bfc1                	j	80001b28 <growproc+0x1e>

0000000080001b5a <fork>:
{
    80001b5a:	7139                	add	sp,sp,-64
    80001b5c:	fc06                	sd	ra,56(sp)
    80001b5e:	f822                	sd	s0,48(sp)
    80001b60:	f426                	sd	s1,40(sp)
    80001b62:	f04a                	sd	s2,32(sp)
    80001b64:	ec4e                	sd	s3,24(sp)
    80001b66:	e852                	sd	s4,16(sp)
    80001b68:	e456                	sd	s5,8(sp)
    80001b6a:	0080                	add	s0,sp,64
  struct proc *p = myproc();
    80001b6c:	cc5ff0ef          	jal	80001830 <myproc>
    80001b70:	8aaa                	mv	s5,a0
  if((np = allocproc()) == 0){
    80001b72:	e81ff0ef          	jal	800019f2 <allocproc>
    80001b76:	0e050a63          	beqz	a0,80001c6a <fork+0x110>
    80001b7a:	89aa                	mv	s3,a0
  if(uvmcopy(p->pagetable, np->pagetable, p->sz) < 0){
    80001b7c:	050ab603          	ld	a2,80(s5)
    80001b80:	6d2c                	ld	a1,88(a0)
    80001b82:	058ab503          	ld	a0,88(s5)
    80001b86:	887ff0ef          	jal	8000140c <uvmcopy>
    80001b8a:	04054863          	bltz	a0,80001bda <fork+0x80>
  np->sz = p->sz;
    80001b8e:	050ab783          	ld	a5,80(s5)
    80001b92:	04f9b823          	sd	a5,80(s3)
  *(np->trapframe) = *(p->trapframe);
    80001b96:	060ab683          	ld	a3,96(s5)
    80001b9a:	87b6                	mv	a5,a3
    80001b9c:	0609b703          	ld	a4,96(s3)
    80001ba0:	12068693          	add	a3,a3,288
    80001ba4:	0007b803          	ld	a6,0(a5) # 1000 <_entry-0x7ffff000>
    80001ba8:	6788                	ld	a0,8(a5)
    80001baa:	6b8c                	ld	a1,16(a5)
    80001bac:	6f90                	ld	a2,24(a5)
    80001bae:	01073023          	sd	a6,0(a4)
    80001bb2:	e708                	sd	a0,8(a4)
    80001bb4:	eb0c                	sd	a1,16(a4)
    80001bb6:	ef10                	sd	a2,24(a4)
    80001bb8:	02078793          	add	a5,a5,32
    80001bbc:	02070713          	add	a4,a4,32
    80001bc0:	fed792e3          	bne	a5,a3,80001ba4 <fork+0x4a>
  np->trapframe->a0 = 0;
    80001bc4:	0609b783          	ld	a5,96(s3)
    80001bc8:	0607b823          	sd	zero,112(a5)
  for(i = 0; i < NOFILE; i++)
    80001bcc:	0d8a8493          	add	s1,s5,216
    80001bd0:	0d898913          	add	s2,s3,216
    80001bd4:	158a8a13          	add	s4,s5,344
    80001bd8:	a829                	j	80001bf2 <fork+0x98>
    freeproc(np);
    80001bda:	854e                	mv	a0,s3
    80001bdc:	dc7ff0ef          	jal	800019a2 <freeproc>
    release(&np->lock);
    80001be0:	854e                	mv	a0,s3
    80001be2:	856ff0ef          	jal	80000c38 <release>
    return -1;
    80001be6:	597d                	li	s2,-1
    80001be8:	a0bd                	j	80001c56 <fork+0xfc>
  for(i = 0; i < NOFILE; i++)
    80001bea:	04a1                	add	s1,s1,8
    80001bec:	0921                	add	s2,s2,8
    80001bee:	01448963          	beq	s1,s4,80001c00 <fork+0xa6>
    if(p->ofile[i])
    80001bf2:	6088                	ld	a0,0(s1)
    80001bf4:	d97d                	beqz	a0,80001bea <fork+0x90>
      np->ofile[i] = filedup(p->ofile[i]);
    80001bf6:	18a020ef          	jal	80003d80 <filedup>
    80001bfa:	00a93023          	sd	a0,0(s2)
    80001bfe:	b7f5                	j	80001bea <fork+0x90>
  np->cwd = idup(p->cwd);
    80001c00:	158ab503          	ld	a0,344(s5)
    80001c04:	50a010ef          	jal	8000310e <idup>
    80001c08:	14a9bc23          	sd	a0,344(s3)
  safestrcpy(np->name, p->name, sizeof(p->name));
    80001c0c:	4641                	li	a2,16
    80001c0e:	160a8593          	add	a1,s5,352
    80001c12:	16098513          	add	a0,s3,352
    80001c16:	9a2ff0ef          	jal	80000db8 <safestrcpy>
  np->trace_mask = p->trace_mask;
    80001c1a:	040aa783          	lw	a5,64(s5)
    80001c1e:	04f9a023          	sw	a5,64(s3)
  pid = np->pid;
    80001c22:	0309a903          	lw	s2,48(s3)
  release(&np->lock);
    80001c26:	854e                	mv	a0,s3
    80001c28:	810ff0ef          	jal	80000c38 <release>
  acquire(&wait_lock);
    80001c2c:	0000e497          	auipc	s1,0xe
    80001c30:	f9c48493          	add	s1,s1,-100 # 8000fbc8 <wait_lock>
    80001c34:	8526                	mv	a0,s1
    80001c36:	f6bfe0ef          	jal	80000ba0 <acquire>
  np->parent = p;
    80001c3a:	0359bc23          	sd	s5,56(s3)
  release(&wait_lock);
    80001c3e:	8526                	mv	a0,s1
    80001c40:	ff9fe0ef          	jal	80000c38 <release>
  acquire(&np->lock);
    80001c44:	854e                	mv	a0,s3
    80001c46:	f5bfe0ef          	jal	80000ba0 <acquire>
  np->state = RUNNABLE;
    80001c4a:	478d                	li	a5,3
    80001c4c:	00f9ac23          	sw	a5,24(s3)
  release(&np->lock);
    80001c50:	854e                	mv	a0,s3
    80001c52:	fe7fe0ef          	jal	80000c38 <release>
}
    80001c56:	854a                	mv	a0,s2
    80001c58:	70e2                	ld	ra,56(sp)
    80001c5a:	7442                	ld	s0,48(sp)
    80001c5c:	74a2                	ld	s1,40(sp)
    80001c5e:	7902                	ld	s2,32(sp)
    80001c60:	69e2                	ld	s3,24(sp)
    80001c62:	6a42                	ld	s4,16(sp)
    80001c64:	6aa2                	ld	s5,8(sp)
    80001c66:	6121                	add	sp,sp,64
    80001c68:	8082                	ret
    return -1;
    80001c6a:	597d                	li	s2,-1
    80001c6c:	b7ed                	j	80001c56 <fork+0xfc>

0000000080001c6e <scheduler>:
{
    80001c6e:	715d                	add	sp,sp,-80
    80001c70:	e486                	sd	ra,72(sp)
    80001c72:	e0a2                	sd	s0,64(sp)
    80001c74:	fc26                	sd	s1,56(sp)
    80001c76:	f84a                	sd	s2,48(sp)
    80001c78:	f44e                	sd	s3,40(sp)
    80001c7a:	f052                	sd	s4,32(sp)
    80001c7c:	ec56                	sd	s5,24(sp)
    80001c7e:	e85a                	sd	s6,16(sp)
    80001c80:	e45e                	sd	s7,8(sp)
    80001c82:	e062                	sd	s8,0(sp)
    80001c84:	0880                	add	s0,sp,80
    80001c86:	8792                	mv	a5,tp
  int id = r_tp();
    80001c88:	2781                	sext.w	a5,a5
  c->proc = 0;
    80001c8a:	00779b13          	sll	s6,a5,0x7
    80001c8e:	0000e717          	auipc	a4,0xe
    80001c92:	f2270713          	add	a4,a4,-222 # 8000fbb0 <pid_lock>
    80001c96:	975a                	add	a4,a4,s6
    80001c98:	02073823          	sd	zero,48(a4)
        swtch(&c->context, &p->context);
    80001c9c:	0000e717          	auipc	a4,0xe
    80001ca0:	f4c70713          	add	a4,a4,-180 # 8000fbe8 <cpus+0x8>
    80001ca4:	9b3a                	add	s6,s6,a4
        p->state = RUNNING;
    80001ca6:	4c11                	li	s8,4
        c->proc = p;
    80001ca8:	079e                	sll	a5,a5,0x7
    80001caa:	0000ea17          	auipc	s4,0xe
    80001cae:	f06a0a13          	add	s4,s4,-250 # 8000fbb0 <pid_lock>
    80001cb2:	9a3e                	add	s4,s4,a5
        found = 1;
    80001cb4:	4b85                	li	s7,1
    for(p = proc; p < &proc[NPROC]; p++) {
    80001cb6:	00014997          	auipc	s3,0x14
    80001cba:	f2a98993          	add	s3,s3,-214 # 80015be0 <tickslock>
    80001cbe:	a0a9                	j	80001d08 <scheduler+0x9a>
      release(&p->lock);
    80001cc0:	8526                	mv	a0,s1
    80001cc2:	f77fe0ef          	jal	80000c38 <release>
    for(p = proc; p < &proc[NPROC]; p++) {
    80001cc6:	17048493          	add	s1,s1,368
    80001cca:	03348563          	beq	s1,s3,80001cf4 <scheduler+0x86>
      acquire(&p->lock);
    80001cce:	8526                	mv	a0,s1
    80001cd0:	ed1fe0ef          	jal	80000ba0 <acquire>
      if(p->state == RUNNABLE) {
    80001cd4:	4c9c                	lw	a5,24(s1)
    80001cd6:	ff2795e3          	bne	a5,s2,80001cc0 <scheduler+0x52>
        p->state = RUNNING;
    80001cda:	0184ac23          	sw	s8,24(s1)
        c->proc = p;
    80001cde:	029a3823          	sd	s1,48(s4)
        swtch(&c->context, &p->context);
    80001ce2:	06848593          	add	a1,s1,104
    80001ce6:	855a                	mv	a0,s6
    80001ce8:	5b4000ef          	jal	8000229c <swtch>
        c->proc = 0;
    80001cec:	020a3823          	sd	zero,48(s4)
        found = 1;
    80001cf0:	8ade                	mv	s5,s7
    80001cf2:	b7f9                	j	80001cc0 <scheduler+0x52>
    if(found == 0) {
    80001cf4:	000a9a63          	bnez	s5,80001d08 <scheduler+0x9a>
  asm volatile("csrr %0, sstatus" : "=r" (x) );
    80001cf8:	100027f3          	csrr	a5,sstatus
  w_sstatus(r_sstatus() | SSTATUS_SIE);
    80001cfc:	0027e793          	or	a5,a5,2
  asm volatile("csrw sstatus, %0" : : "r" (x));
    80001d00:	10079073          	csrw	sstatus,a5
      asm volatile("wfi");
    80001d04:	10500073          	wfi
  asm volatile("csrr %0, sstatus" : "=r" (x) );
    80001d08:	100027f3          	csrr	a5,sstatus
  w_sstatus(r_sstatus() | SSTATUS_SIE);
    80001d0c:	0027e793          	or	a5,a5,2
  asm volatile("csrw sstatus, %0" : : "r" (x));
    80001d10:	10079073          	csrw	sstatus,a5
    int found = 0;
    80001d14:	4a81                	li	s5,0
    for(p = proc; p < &proc[NPROC]; p++) {
    80001d16:	0000e497          	auipc	s1,0xe
    80001d1a:	2ca48493          	add	s1,s1,714 # 8000ffe0 <proc>
      if(p->state == RUNNABLE) {
    80001d1e:	490d                	li	s2,3
    80001d20:	b77d                	j	80001cce <scheduler+0x60>

0000000080001d22 <sched>:
{
    80001d22:	7179                	add	sp,sp,-48
    80001d24:	f406                	sd	ra,40(sp)
    80001d26:	f022                	sd	s0,32(sp)
    80001d28:	ec26                	sd	s1,24(sp)
    80001d2a:	e84a                	sd	s2,16(sp)
    80001d2c:	e44e                	sd	s3,8(sp)
    80001d2e:	1800                	add	s0,sp,48
  struct proc *p = myproc();
    80001d30:	b01ff0ef          	jal	80001830 <myproc>
    80001d34:	84aa                	mv	s1,a0
  if(!holding(&p->lock))
    80001d36:	e01fe0ef          	jal	80000b36 <holding>
    80001d3a:	c92d                	beqz	a0,80001dac <sched+0x8a>
  asm volatile("mv %0, tp" : "=r" (x) );
    80001d3c:	8792                	mv	a5,tp
  if(mycpu()->noff != 1)
    80001d3e:	2781                	sext.w	a5,a5
    80001d40:	079e                	sll	a5,a5,0x7
    80001d42:	0000e717          	auipc	a4,0xe
    80001d46:	e6e70713          	add	a4,a4,-402 # 8000fbb0 <pid_lock>
    80001d4a:	97ba                	add	a5,a5,a4
    80001d4c:	0a87a703          	lw	a4,168(a5)
    80001d50:	4785                	li	a5,1
    80001d52:	06f71363          	bne	a4,a5,80001db8 <sched+0x96>
  if(p->state == RUNNING)
    80001d56:	4c98                	lw	a4,24(s1)
    80001d58:	4791                	li	a5,4
    80001d5a:	06f70563          	beq	a4,a5,80001dc4 <sched+0xa2>
  asm volatile("csrr %0, sstatus" : "=r" (x) );
    80001d5e:	100027f3          	csrr	a5,sstatus
  return (x & SSTATUS_SIE) != 0;
    80001d62:	8b89                	and	a5,a5,2
  if(intr_get())
    80001d64:	e7b5                	bnez	a5,80001dd0 <sched+0xae>
  asm volatile("mv %0, tp" : "=r" (x) );
    80001d66:	8792                	mv	a5,tp
  intena = mycpu()->intena;
    80001d68:	0000e917          	auipc	s2,0xe
    80001d6c:	e4890913          	add	s2,s2,-440 # 8000fbb0 <pid_lock>
    80001d70:	2781                	sext.w	a5,a5
    80001d72:	079e                	sll	a5,a5,0x7
    80001d74:	97ca                	add	a5,a5,s2
    80001d76:	0ac7a983          	lw	s3,172(a5)
    80001d7a:	8792                	mv	a5,tp
  swtch(&p->context, &mycpu()->context);
    80001d7c:	2781                	sext.w	a5,a5
    80001d7e:	079e                	sll	a5,a5,0x7
    80001d80:	0000e597          	auipc	a1,0xe
    80001d84:	e6858593          	add	a1,a1,-408 # 8000fbe8 <cpus+0x8>
    80001d88:	95be                	add	a1,a1,a5
    80001d8a:	06848513          	add	a0,s1,104
    80001d8e:	50e000ef          	jal	8000229c <swtch>
    80001d92:	8792                	mv	a5,tp
  mycpu()->intena = intena;
    80001d94:	2781                	sext.w	a5,a5
    80001d96:	079e                	sll	a5,a5,0x7
    80001d98:	993e                	add	s2,s2,a5
    80001d9a:	0b392623          	sw	s3,172(s2)
}
    80001d9e:	70a2                	ld	ra,40(sp)
    80001da0:	7402                	ld	s0,32(sp)
    80001da2:	64e2                	ld	s1,24(sp)
    80001da4:	6942                	ld	s2,16(sp)
    80001da6:	69a2                	ld	s3,8(sp)
    80001da8:	6145                	add	sp,sp,48
    80001daa:	8082                	ret
    panic("sched p->lock");
    80001dac:	00005517          	auipc	a0,0x5
    80001db0:	4a450513          	add	a0,a0,1188 # 80007250 <digits+0x218>
    80001db4:	9abfe0ef          	jal	8000075e <panic>
    panic("sched locks");
    80001db8:	00005517          	auipc	a0,0x5
    80001dbc:	4a850513          	add	a0,a0,1192 # 80007260 <digits+0x228>
    80001dc0:	99ffe0ef          	jal	8000075e <panic>
    panic("sched running");
    80001dc4:	00005517          	auipc	a0,0x5
    80001dc8:	4ac50513          	add	a0,a0,1196 # 80007270 <digits+0x238>
    80001dcc:	993fe0ef          	jal	8000075e <panic>
    panic("sched interruptible");
    80001dd0:	00005517          	auipc	a0,0x5
    80001dd4:	4b050513          	add	a0,a0,1200 # 80007280 <digits+0x248>
    80001dd8:	987fe0ef          	jal	8000075e <panic>

0000000080001ddc <yield>:
{
    80001ddc:	1101                	add	sp,sp,-32
    80001dde:	ec06                	sd	ra,24(sp)
    80001de0:	e822                	sd	s0,16(sp)
    80001de2:	e426                	sd	s1,8(sp)
    80001de4:	1000                	add	s0,sp,32
  struct proc *p = myproc();
    80001de6:	a4bff0ef          	jal	80001830 <myproc>
    80001dea:	84aa                	mv	s1,a0
  acquire(&p->lock);
    80001dec:	db5fe0ef          	jal	80000ba0 <acquire>
  p->state = RUNNABLE;
    80001df0:	478d                	li	a5,3
    80001df2:	cc9c                	sw	a5,24(s1)
  sched();
    80001df4:	f2fff0ef          	jal	80001d22 <sched>
  release(&p->lock);
    80001df8:	8526                	mv	a0,s1
    80001dfa:	e3ffe0ef          	jal	80000c38 <release>
}
    80001dfe:	60e2                	ld	ra,24(sp)
    80001e00:	6442                	ld	s0,16(sp)
    80001e02:	64a2                	ld	s1,8(sp)
    80001e04:	6105                	add	sp,sp,32
    80001e06:	8082                	ret

0000000080001e08 <sleep>:

/* Atomically release lock and sleep on chan. */
/* Reacquires lock when awakened. */
void
sleep(void *chan, struct spinlock *lk)
{
    80001e08:	7179                	add	sp,sp,-48
    80001e0a:	f406                	sd	ra,40(sp)
    80001e0c:	f022                	sd	s0,32(sp)
    80001e0e:	ec26                	sd	s1,24(sp)
    80001e10:	e84a                	sd	s2,16(sp)
    80001e12:	e44e                	sd	s3,8(sp)
    80001e14:	1800                	add	s0,sp,48
    80001e16:	89aa                	mv	s3,a0
    80001e18:	892e                	mv	s2,a1
  struct proc *p = myproc();
    80001e1a:	a17ff0ef          	jal	80001830 <myproc>
    80001e1e:	84aa                	mv	s1,a0
  /* Once we hold p->lock, we can be */
  /* guaranteed that we won't miss any wakeup */
  /* (wakeup locks p->lock), */
  /* so it's okay to release lk. */

  acquire(&p->lock);  /*DOC: sleeplock1 */
    80001e20:	d81fe0ef          	jal	80000ba0 <acquire>
  release(lk);
    80001e24:	854a                	mv	a0,s2
    80001e26:	e13fe0ef          	jal	80000c38 <release>

  /* Go to sleep. */
  p->chan = chan;
    80001e2a:	0334b023          	sd	s3,32(s1)
  p->state = SLEEPING;
    80001e2e:	4789                	li	a5,2
    80001e30:	cc9c                	sw	a5,24(s1)

  sched();
    80001e32:	ef1ff0ef          	jal	80001d22 <sched>

  /* Tidy up. */
  p->chan = 0;
    80001e36:	0204b023          	sd	zero,32(s1)

  /* Reacquire original lock. */
  release(&p->lock);
    80001e3a:	8526                	mv	a0,s1
    80001e3c:	dfdfe0ef          	jal	80000c38 <release>
  acquire(lk);
    80001e40:	854a                	mv	a0,s2
    80001e42:	d5ffe0ef          	jal	80000ba0 <acquire>
}
    80001e46:	70a2                	ld	ra,40(sp)
    80001e48:	7402                	ld	s0,32(sp)
    80001e4a:	64e2                	ld	s1,24(sp)
    80001e4c:	6942                	ld	s2,16(sp)
    80001e4e:	69a2                	ld	s3,8(sp)
    80001e50:	6145                	add	sp,sp,48
    80001e52:	8082                	ret

0000000080001e54 <wakeup>:

/* Wake up all processes sleeping on chan. */
/* Must be called without any p->lock. */
void
wakeup(void *chan)
{
    80001e54:	7139                	add	sp,sp,-64
    80001e56:	fc06                	sd	ra,56(sp)
    80001e58:	f822                	sd	s0,48(sp)
    80001e5a:	f426                	sd	s1,40(sp)
    80001e5c:	f04a                	sd	s2,32(sp)
    80001e5e:	ec4e                	sd	s3,24(sp)
    80001e60:	e852                	sd	s4,16(sp)
    80001e62:	e456                	sd	s5,8(sp)
    80001e64:	0080                	add	s0,sp,64
    80001e66:	8a2a                	mv	s4,a0
  struct proc *p;

  for(p = proc; p < &proc[NPROC]; p++) {
    80001e68:	0000e497          	auipc	s1,0xe
    80001e6c:	17848493          	add	s1,s1,376 # 8000ffe0 <proc>
    if(p != myproc()){
      acquire(&p->lock);
      if(p->state == SLEEPING && p->chan == chan) {
    80001e70:	4989                	li	s3,2
        p->state = RUNNABLE;
    80001e72:	4a8d                	li	s5,3
  for(p = proc; p < &proc[NPROC]; p++) {
    80001e74:	00014917          	auipc	s2,0x14
    80001e78:	d6c90913          	add	s2,s2,-660 # 80015be0 <tickslock>
    80001e7c:	a801                	j	80001e8c <wakeup+0x38>
      }
      release(&p->lock);
    80001e7e:	8526                	mv	a0,s1
    80001e80:	db9fe0ef          	jal	80000c38 <release>
  for(p = proc; p < &proc[NPROC]; p++) {
    80001e84:	17048493          	add	s1,s1,368
    80001e88:	03248263          	beq	s1,s2,80001eac <wakeup+0x58>
    if(p != myproc()){
    80001e8c:	9a5ff0ef          	jal	80001830 <myproc>
    80001e90:	fea48ae3          	beq	s1,a0,80001e84 <wakeup+0x30>
      acquire(&p->lock);
    80001e94:	8526                	mv	a0,s1
    80001e96:	d0bfe0ef          	jal	80000ba0 <acquire>
      if(p->state == SLEEPING && p->chan == chan) {
    80001e9a:	4c9c                	lw	a5,24(s1)
    80001e9c:	ff3791e3          	bne	a5,s3,80001e7e <wakeup+0x2a>
    80001ea0:	709c                	ld	a5,32(s1)
    80001ea2:	fd479ee3          	bne	a5,s4,80001e7e <wakeup+0x2a>
        p->state = RUNNABLE;
    80001ea6:	0154ac23          	sw	s5,24(s1)
    80001eaa:	bfd1                	j	80001e7e <wakeup+0x2a>
    }
  }
}
    80001eac:	70e2                	ld	ra,56(sp)
    80001eae:	7442                	ld	s0,48(sp)
    80001eb0:	74a2                	ld	s1,40(sp)
    80001eb2:	7902                	ld	s2,32(sp)
    80001eb4:	69e2                	ld	s3,24(sp)
    80001eb6:	6a42                	ld	s4,16(sp)
    80001eb8:	6aa2                	ld	s5,8(sp)
    80001eba:	6121                	add	sp,sp,64
    80001ebc:	8082                	ret

0000000080001ebe <reparent>:
{
    80001ebe:	7179                	add	sp,sp,-48
    80001ec0:	f406                	sd	ra,40(sp)
    80001ec2:	f022                	sd	s0,32(sp)
    80001ec4:	ec26                	sd	s1,24(sp)
    80001ec6:	e84a                	sd	s2,16(sp)
    80001ec8:	e44e                	sd	s3,8(sp)
    80001eca:	e052                	sd	s4,0(sp)
    80001ecc:	1800                	add	s0,sp,48
    80001ece:	892a                	mv	s2,a0
  for(pp = proc; pp < &proc[NPROC]; pp++){
    80001ed0:	0000e497          	auipc	s1,0xe
    80001ed4:	11048493          	add	s1,s1,272 # 8000ffe0 <proc>
      pp->parent = initproc;
    80001ed8:	00006a17          	auipc	s4,0x6
    80001edc:	ba0a0a13          	add	s4,s4,-1120 # 80007a78 <initproc>
  for(pp = proc; pp < &proc[NPROC]; pp++){
    80001ee0:	00014997          	auipc	s3,0x14
    80001ee4:	d0098993          	add	s3,s3,-768 # 80015be0 <tickslock>
    80001ee8:	a029                	j	80001ef2 <reparent+0x34>
    80001eea:	17048493          	add	s1,s1,368
    80001eee:	01348b63          	beq	s1,s3,80001f04 <reparent+0x46>
    if(pp->parent == p){
    80001ef2:	7c9c                	ld	a5,56(s1)
    80001ef4:	ff279be3          	bne	a5,s2,80001eea <reparent+0x2c>
      pp->parent = initproc;
    80001ef8:	000a3503          	ld	a0,0(s4)
    80001efc:	fc88                	sd	a0,56(s1)
      wakeup(initproc);
    80001efe:	f57ff0ef          	jal	80001e54 <wakeup>
    80001f02:	b7e5                	j	80001eea <reparent+0x2c>
}
    80001f04:	70a2                	ld	ra,40(sp)
    80001f06:	7402                	ld	s0,32(sp)
    80001f08:	64e2                	ld	s1,24(sp)
    80001f0a:	6942                	ld	s2,16(sp)
    80001f0c:	69a2                	ld	s3,8(sp)
    80001f0e:	6a02                	ld	s4,0(sp)
    80001f10:	6145                	add	sp,sp,48
    80001f12:	8082                	ret

0000000080001f14 <exit>:
{
    80001f14:	7179                	add	sp,sp,-48
    80001f16:	f406                	sd	ra,40(sp)
    80001f18:	f022                	sd	s0,32(sp)
    80001f1a:	ec26                	sd	s1,24(sp)
    80001f1c:	e84a                	sd	s2,16(sp)
    80001f1e:	e44e                	sd	s3,8(sp)
    80001f20:	e052                	sd	s4,0(sp)
    80001f22:	1800                	add	s0,sp,48
    80001f24:	8a2a                	mv	s4,a0
  struct proc *p = myproc();
    80001f26:	90bff0ef          	jal	80001830 <myproc>
    80001f2a:	89aa                	mv	s3,a0
  if(p == initproc)
    80001f2c:	00006797          	auipc	a5,0x6
    80001f30:	b4c7b783          	ld	a5,-1204(a5) # 80007a78 <initproc>
    80001f34:	0d850493          	add	s1,a0,216
    80001f38:	15850913          	add	s2,a0,344
    80001f3c:	00a79f63          	bne	a5,a0,80001f5a <exit+0x46>
    panic("init exiting");
    80001f40:	00005517          	auipc	a0,0x5
    80001f44:	35850513          	add	a0,a0,856 # 80007298 <digits+0x260>
    80001f48:	817fe0ef          	jal	8000075e <panic>
      fileclose(f);
    80001f4c:	67b010ef          	jal	80003dc6 <fileclose>
      p->ofile[fd] = 0;
    80001f50:	0004b023          	sd	zero,0(s1)
  for(int fd = 0; fd < NOFILE; fd++){
    80001f54:	04a1                	add	s1,s1,8
    80001f56:	01248563          	beq	s1,s2,80001f60 <exit+0x4c>
    if(p->ofile[fd]){
    80001f5a:	6088                	ld	a0,0(s1)
    80001f5c:	f965                	bnez	a0,80001f4c <exit+0x38>
    80001f5e:	bfdd                	j	80001f54 <exit+0x40>
  begin_op();
    80001f60:	253010ef          	jal	800039b2 <begin_op>
  iput(p->cwd);
    80001f64:	1589b503          	ld	a0,344(s3)
    80001f68:	35a010ef          	jal	800032c2 <iput>
  end_op();
    80001f6c:	2b1010ef          	jal	80003a1c <end_op>
  p->cwd = 0;
    80001f70:	1409bc23          	sd	zero,344(s3)
  acquire(&wait_lock);
    80001f74:	0000e497          	auipc	s1,0xe
    80001f78:	c5448493          	add	s1,s1,-940 # 8000fbc8 <wait_lock>
    80001f7c:	8526                	mv	a0,s1
    80001f7e:	c23fe0ef          	jal	80000ba0 <acquire>
  reparent(p);
    80001f82:	854e                	mv	a0,s3
    80001f84:	f3bff0ef          	jal	80001ebe <reparent>
  wakeup(p->parent);
    80001f88:	0389b503          	ld	a0,56(s3)
    80001f8c:	ec9ff0ef          	jal	80001e54 <wakeup>
  acquire(&p->lock);
    80001f90:	854e                	mv	a0,s3
    80001f92:	c0ffe0ef          	jal	80000ba0 <acquire>
  p->xstate = status;
    80001f96:	0349a623          	sw	s4,44(s3)
  p->state = ZOMBIE;
    80001f9a:	4795                	li	a5,5
    80001f9c:	00f9ac23          	sw	a5,24(s3)
  release(&wait_lock);
    80001fa0:	8526                	mv	a0,s1
    80001fa2:	c97fe0ef          	jal	80000c38 <release>
  sched();
    80001fa6:	d7dff0ef          	jal	80001d22 <sched>
  panic("zombie exit");
    80001faa:	00005517          	auipc	a0,0x5
    80001fae:	2fe50513          	add	a0,a0,766 # 800072a8 <digits+0x270>
    80001fb2:	facfe0ef          	jal	8000075e <panic>

0000000080001fb6 <kill>:
/* Kill the process with the given pid. */
/* The victim won't exit until it tries to return */
/* to user space (see usertrap() in trap.c). */
int
kill(int pid)
{
    80001fb6:	7179                	add	sp,sp,-48
    80001fb8:	f406                	sd	ra,40(sp)
    80001fba:	f022                	sd	s0,32(sp)
    80001fbc:	ec26                	sd	s1,24(sp)
    80001fbe:	e84a                	sd	s2,16(sp)
    80001fc0:	e44e                	sd	s3,8(sp)
    80001fc2:	1800                	add	s0,sp,48
    80001fc4:	892a                	mv	s2,a0
  struct proc *p;

  for(p = proc; p < &proc[NPROC]; p++){
    80001fc6:	0000e497          	auipc	s1,0xe
    80001fca:	01a48493          	add	s1,s1,26 # 8000ffe0 <proc>
    80001fce:	00014997          	auipc	s3,0x14
    80001fd2:	c1298993          	add	s3,s3,-1006 # 80015be0 <tickslock>
    acquire(&p->lock);
    80001fd6:	8526                	mv	a0,s1
    80001fd8:	bc9fe0ef          	jal	80000ba0 <acquire>
    if(p->pid == pid){
    80001fdc:	589c                	lw	a5,48(s1)
    80001fde:	01278b63          	beq	a5,s2,80001ff4 <kill+0x3e>
        p->state = RUNNABLE;
      }
      release(&p->lock);
      return 0;
    }
    release(&p->lock);
    80001fe2:	8526                	mv	a0,s1
    80001fe4:	c55fe0ef          	jal	80000c38 <release>
  for(p = proc; p < &proc[NPROC]; p++){
    80001fe8:	17048493          	add	s1,s1,368
    80001fec:	ff3495e3          	bne	s1,s3,80001fd6 <kill+0x20>
  }
  return -1;
    80001ff0:	557d                	li	a0,-1
    80001ff2:	a819                	j	80002008 <kill+0x52>
      p->killed = 1;
    80001ff4:	4785                	li	a5,1
    80001ff6:	d49c                	sw	a5,40(s1)
      if(p->state == SLEEPING){
    80001ff8:	4c98                	lw	a4,24(s1)
    80001ffa:	4789                	li	a5,2
    80001ffc:	00f70d63          	beq	a4,a5,80002016 <kill+0x60>
      release(&p->lock);
    80002000:	8526                	mv	a0,s1
    80002002:	c37fe0ef          	jal	80000c38 <release>
      return 0;
    80002006:	4501                	li	a0,0
}
    80002008:	70a2                	ld	ra,40(sp)
    8000200a:	7402                	ld	s0,32(sp)
    8000200c:	64e2                	ld	s1,24(sp)
    8000200e:	6942                	ld	s2,16(sp)
    80002010:	69a2                	ld	s3,8(sp)
    80002012:	6145                	add	sp,sp,48
    80002014:	8082                	ret
        p->state = RUNNABLE;
    80002016:	478d                	li	a5,3
    80002018:	cc9c                	sw	a5,24(s1)
    8000201a:	b7dd                	j	80002000 <kill+0x4a>

000000008000201c <setkilled>:

void
setkilled(struct proc *p)
{
    8000201c:	1101                	add	sp,sp,-32
    8000201e:	ec06                	sd	ra,24(sp)
    80002020:	e822                	sd	s0,16(sp)
    80002022:	e426                	sd	s1,8(sp)
    80002024:	1000                	add	s0,sp,32
    80002026:	84aa                	mv	s1,a0
  acquire(&p->lock);
    80002028:	b79fe0ef          	jal	80000ba0 <acquire>
  p->killed = 1;
    8000202c:	4785                	li	a5,1
    8000202e:	d49c                	sw	a5,40(s1)
  release(&p->lock);
    80002030:	8526                	mv	a0,s1
    80002032:	c07fe0ef          	jal	80000c38 <release>
}
    80002036:	60e2                	ld	ra,24(sp)
    80002038:	6442                	ld	s0,16(sp)
    8000203a:	64a2                	ld	s1,8(sp)
    8000203c:	6105                	add	sp,sp,32
    8000203e:	8082                	ret

0000000080002040 <killed>:

int
killed(struct proc *p)
{
    80002040:	1101                	add	sp,sp,-32
    80002042:	ec06                	sd	ra,24(sp)
    80002044:	e822                	sd	s0,16(sp)
    80002046:	e426                	sd	s1,8(sp)
    80002048:	e04a                	sd	s2,0(sp)
    8000204a:	1000                	add	s0,sp,32
    8000204c:	84aa                	mv	s1,a0
  int k;
  
  acquire(&p->lock);
    8000204e:	b53fe0ef          	jal	80000ba0 <acquire>
  k = p->killed;
    80002052:	0284a903          	lw	s2,40(s1)
  release(&p->lock);
    80002056:	8526                	mv	a0,s1
    80002058:	be1fe0ef          	jal	80000c38 <release>
  return k;
}
    8000205c:	854a                	mv	a0,s2
    8000205e:	60e2                	ld	ra,24(sp)
    80002060:	6442                	ld	s0,16(sp)
    80002062:	64a2                	ld	s1,8(sp)
    80002064:	6902                	ld	s2,0(sp)
    80002066:	6105                	add	sp,sp,32
    80002068:	8082                	ret

000000008000206a <wait>:
{
    8000206a:	715d                	add	sp,sp,-80
    8000206c:	e486                	sd	ra,72(sp)
    8000206e:	e0a2                	sd	s0,64(sp)
    80002070:	fc26                	sd	s1,56(sp)
    80002072:	f84a                	sd	s2,48(sp)
    80002074:	f44e                	sd	s3,40(sp)
    80002076:	f052                	sd	s4,32(sp)
    80002078:	ec56                	sd	s5,24(sp)
    8000207a:	e85a                	sd	s6,16(sp)
    8000207c:	e45e                	sd	s7,8(sp)
    8000207e:	e062                	sd	s8,0(sp)
    80002080:	0880                	add	s0,sp,80
    80002082:	8b2a                	mv	s6,a0
  struct proc *p = myproc();
    80002084:	facff0ef          	jal	80001830 <myproc>
    80002088:	892a                	mv	s2,a0
  acquire(&wait_lock);
    8000208a:	0000e517          	auipc	a0,0xe
    8000208e:	b3e50513          	add	a0,a0,-1218 # 8000fbc8 <wait_lock>
    80002092:	b0ffe0ef          	jal	80000ba0 <acquire>
    havekids = 0;
    80002096:	4b81                	li	s7,0
        if(pp->state == ZOMBIE){
    80002098:	4a15                	li	s4,5
        havekids = 1;
    8000209a:	4a85                	li	s5,1
    for(pp = proc; pp < &proc[NPROC]; pp++){
    8000209c:	00014997          	auipc	s3,0x14
    800020a0:	b4498993          	add	s3,s3,-1212 # 80015be0 <tickslock>
    sleep(p, &wait_lock);  /*DOC: wait-sleep */
    800020a4:	0000ec17          	auipc	s8,0xe
    800020a8:	b24c0c13          	add	s8,s8,-1244 # 8000fbc8 <wait_lock>
    800020ac:	a871                	j	80002148 <wait+0xde>
          pid = pp->pid;
    800020ae:	0304a983          	lw	s3,48(s1)
          if(addr != 0 && copyout(p->pagetable, addr, (char *)&pp->xstate,
    800020b2:	000b0c63          	beqz	s6,800020ca <wait+0x60>
    800020b6:	4691                	li	a3,4
    800020b8:	02c48613          	add	a2,s1,44
    800020bc:	85da                	mv	a1,s6
    800020be:	05893503          	ld	a0,88(s2)
    800020c2:	c26ff0ef          	jal	800014e8 <copyout>
    800020c6:	02054b63          	bltz	a0,800020fc <wait+0x92>
          freeproc(pp);
    800020ca:	8526                	mv	a0,s1
    800020cc:	8d7ff0ef          	jal	800019a2 <freeproc>
          release(&pp->lock);
    800020d0:	8526                	mv	a0,s1
    800020d2:	b67fe0ef          	jal	80000c38 <release>
          release(&wait_lock);
    800020d6:	0000e517          	auipc	a0,0xe
    800020da:	af250513          	add	a0,a0,-1294 # 8000fbc8 <wait_lock>
    800020de:	b5bfe0ef          	jal	80000c38 <release>
}
    800020e2:	854e                	mv	a0,s3
    800020e4:	60a6                	ld	ra,72(sp)
    800020e6:	6406                	ld	s0,64(sp)
    800020e8:	74e2                	ld	s1,56(sp)
    800020ea:	7942                	ld	s2,48(sp)
    800020ec:	79a2                	ld	s3,40(sp)
    800020ee:	7a02                	ld	s4,32(sp)
    800020f0:	6ae2                	ld	s5,24(sp)
    800020f2:	6b42                	ld	s6,16(sp)
    800020f4:	6ba2                	ld	s7,8(sp)
    800020f6:	6c02                	ld	s8,0(sp)
    800020f8:	6161                	add	sp,sp,80
    800020fa:	8082                	ret
            release(&pp->lock);
    800020fc:	8526                	mv	a0,s1
    800020fe:	b3bfe0ef          	jal	80000c38 <release>
            release(&wait_lock);
    80002102:	0000e517          	auipc	a0,0xe
    80002106:	ac650513          	add	a0,a0,-1338 # 8000fbc8 <wait_lock>
    8000210a:	b2ffe0ef          	jal	80000c38 <release>
            return -1;
    8000210e:	59fd                	li	s3,-1
    80002110:	bfc9                	j	800020e2 <wait+0x78>
    for(pp = proc; pp < &proc[NPROC]; pp++){
    80002112:	17048493          	add	s1,s1,368
    80002116:	03348063          	beq	s1,s3,80002136 <wait+0xcc>
      if(pp->parent == p){
    8000211a:	7c9c                	ld	a5,56(s1)
    8000211c:	ff279be3          	bne	a5,s2,80002112 <wait+0xa8>
        acquire(&pp->lock);
    80002120:	8526                	mv	a0,s1
    80002122:	a7ffe0ef          	jal	80000ba0 <acquire>
        if(pp->state == ZOMBIE){
    80002126:	4c9c                	lw	a5,24(s1)
    80002128:	f94783e3          	beq	a5,s4,800020ae <wait+0x44>
        release(&pp->lock);
    8000212c:	8526                	mv	a0,s1
    8000212e:	b0bfe0ef          	jal	80000c38 <release>
        havekids = 1;
    80002132:	8756                	mv	a4,s5
    80002134:	bff9                	j	80002112 <wait+0xa8>
    if(!havekids || killed(p)){
    80002136:	cf19                	beqz	a4,80002154 <wait+0xea>
    80002138:	854a                	mv	a0,s2
    8000213a:	f07ff0ef          	jal	80002040 <killed>
    8000213e:	e919                	bnez	a0,80002154 <wait+0xea>
    sleep(p, &wait_lock);  /*DOC: wait-sleep */
    80002140:	85e2                	mv	a1,s8
    80002142:	854a                	mv	a0,s2
    80002144:	cc5ff0ef          	jal	80001e08 <sleep>
    havekids = 0;
    80002148:	875e                	mv	a4,s7
    for(pp = proc; pp < &proc[NPROC]; pp++){
    8000214a:	0000e497          	auipc	s1,0xe
    8000214e:	e9648493          	add	s1,s1,-362 # 8000ffe0 <proc>
    80002152:	b7e1                	j	8000211a <wait+0xb0>
      release(&wait_lock);
    80002154:	0000e517          	auipc	a0,0xe
    80002158:	a7450513          	add	a0,a0,-1420 # 8000fbc8 <wait_lock>
    8000215c:	addfe0ef          	jal	80000c38 <release>
      return -1;
    80002160:	59fd                	li	s3,-1
    80002162:	b741                	j	800020e2 <wait+0x78>

0000000080002164 <either_copyout>:
/* Copy to either a user address, or kernel address, */
/* depending on usr_dst. */
/* Returns 0 on success, -1 on error. */
int
either_copyout(int user_dst, uint64 dst, void *src, uint64 len)
{
    80002164:	7179                	add	sp,sp,-48
    80002166:	f406                	sd	ra,40(sp)
    80002168:	f022                	sd	s0,32(sp)
    8000216a:	ec26                	sd	s1,24(sp)
    8000216c:	e84a                	sd	s2,16(sp)
    8000216e:	e44e                	sd	s3,8(sp)
    80002170:	e052                	sd	s4,0(sp)
    80002172:	1800                	add	s0,sp,48
    80002174:	84aa                	mv	s1,a0
    80002176:	892e                	mv	s2,a1
    80002178:	89b2                	mv	s3,a2
    8000217a:	8a36                	mv	s4,a3
  struct proc *p = myproc();
    8000217c:	eb4ff0ef          	jal	80001830 <myproc>
  if(user_dst){
    80002180:	cc99                	beqz	s1,8000219e <either_copyout+0x3a>
    return copyout(p->pagetable, dst, src, len);
    80002182:	86d2                	mv	a3,s4
    80002184:	864e                	mv	a2,s3
    80002186:	85ca                	mv	a1,s2
    80002188:	6d28                	ld	a0,88(a0)
    8000218a:	b5eff0ef          	jal	800014e8 <copyout>
  } else {
    memmove((char *)dst, src, len);
    return 0;
  }
}
    8000218e:	70a2                	ld	ra,40(sp)
    80002190:	7402                	ld	s0,32(sp)
    80002192:	64e2                	ld	s1,24(sp)
    80002194:	6942                	ld	s2,16(sp)
    80002196:	69a2                	ld	s3,8(sp)
    80002198:	6a02                	ld	s4,0(sp)
    8000219a:	6145                	add	sp,sp,48
    8000219c:	8082                	ret
    memmove((char *)dst, src, len);
    8000219e:	000a061b          	sext.w	a2,s4
    800021a2:	85ce                	mv	a1,s3
    800021a4:	854a                	mv	a0,s2
    800021a6:	b2bfe0ef          	jal	80000cd0 <memmove>
    return 0;
    800021aa:	8526                	mv	a0,s1
    800021ac:	b7cd                	j	8000218e <either_copyout+0x2a>

00000000800021ae <either_copyin>:
/* Copy from either a user address, or kernel address, */
/* depending on usr_src. */
/* Returns 0 on success, -1 on error. */
int
either_copyin(void *dst, int user_src, uint64 src, uint64 len)
{
    800021ae:	7179                	add	sp,sp,-48
    800021b0:	f406                	sd	ra,40(sp)
    800021b2:	f022                	sd	s0,32(sp)
    800021b4:	ec26                	sd	s1,24(sp)
    800021b6:	e84a                	sd	s2,16(sp)
    800021b8:	e44e                	sd	s3,8(sp)
    800021ba:	e052                	sd	s4,0(sp)
    800021bc:	1800                	add	s0,sp,48
    800021be:	892a                	mv	s2,a0
    800021c0:	84ae                	mv	s1,a1
    800021c2:	89b2                	mv	s3,a2
    800021c4:	8a36                	mv	s4,a3
  struct proc *p = myproc();
    800021c6:	e6aff0ef          	jal	80001830 <myproc>
  if(user_src){
    800021ca:	cc99                	beqz	s1,800021e8 <either_copyin+0x3a>
    return copyin(p->pagetable, dst, src, len);
    800021cc:	86d2                	mv	a3,s4
    800021ce:	864e                	mv	a2,s3
    800021d0:	85ca                	mv	a1,s2
    800021d2:	6d28                	ld	a0,88(a0)
    800021d4:	bccff0ef          	jal	800015a0 <copyin>
  } else {
    memmove(dst, (char*)src, len);
    return 0;
  }
}
    800021d8:	70a2                	ld	ra,40(sp)
    800021da:	7402                	ld	s0,32(sp)
    800021dc:	64e2                	ld	s1,24(sp)
    800021de:	6942                	ld	s2,16(sp)
    800021e0:	69a2                	ld	s3,8(sp)
    800021e2:	6a02                	ld	s4,0(sp)
    800021e4:	6145                	add	sp,sp,48
    800021e6:	8082                	ret
    memmove(dst, (char*)src, len);
    800021e8:	000a061b          	sext.w	a2,s4
    800021ec:	85ce                	mv	a1,s3
    800021ee:	854a                	mv	a0,s2
    800021f0:	ae1fe0ef          	jal	80000cd0 <memmove>
    return 0;
    800021f4:	8526                	mv	a0,s1
    800021f6:	b7cd                	j	800021d8 <either_copyin+0x2a>

00000000800021f8 <procdump>:
/* Print a process listing to console.  For debugging. */
/* Runs when user types ^P on console. */
/* No lock to avoid wedging a stuck machine further. */
void
procdump(void)
{
    800021f8:	715d                	add	sp,sp,-80
    800021fa:	e486                	sd	ra,72(sp)
    800021fc:	e0a2                	sd	s0,64(sp)
    800021fe:	fc26                	sd	s1,56(sp)
    80002200:	f84a                	sd	s2,48(sp)
    80002202:	f44e                	sd	s3,40(sp)
    80002204:	f052                	sd	s4,32(sp)
    80002206:	ec56                	sd	s5,24(sp)
    80002208:	e85a                	sd	s6,16(sp)
    8000220a:	e45e                	sd	s7,8(sp)
    8000220c:	0880                	add	s0,sp,80
  [ZOMBIE]    "zombie"
  };
  struct proc *p;
  char *state;

  printf("\n");
    8000220e:	00005517          	auipc	a0,0x5
    80002212:	eb250513          	add	a0,a0,-334 # 800070c0 <digits+0x88>
    80002216:	a88fe0ef          	jal	8000049e <printf>
  for(p = proc; p < &proc[NPROC]; p++){
    8000221a:	0000e497          	auipc	s1,0xe
    8000221e:	f2648493          	add	s1,s1,-218 # 80010140 <proc+0x160>
    80002222:	00014917          	auipc	s2,0x14
    80002226:	b1e90913          	add	s2,s2,-1250 # 80015d40 <bcache+0x148>
    if(p->state == UNUSED)
      continue;
    if(p->state >= 0 && p->state < NELEM(states) && states[p->state])
    8000222a:	4b15                	li	s6,5
      state = states[p->state];
    else
      state = "???";
    8000222c:	00005997          	auipc	s3,0x5
    80002230:	08c98993          	add	s3,s3,140 # 800072b8 <digits+0x280>
    printf("%d %s %s", p->pid, state, p->name);
    80002234:	00005a97          	auipc	s5,0x5
    80002238:	08ca8a93          	add	s5,s5,140 # 800072c0 <digits+0x288>
    printf("\n");
    8000223c:	00005a17          	auipc	s4,0x5
    80002240:	e84a0a13          	add	s4,s4,-380 # 800070c0 <digits+0x88>
    if(p->state >= 0 && p->state < NELEM(states) && states[p->state])
    80002244:	00005b97          	auipc	s7,0x5
    80002248:	0bcb8b93          	add	s7,s7,188 # 80007300 <states.0>
    8000224c:	a829                	j	80002266 <procdump+0x6e>
    printf("%d %s %s", p->pid, state, p->name);
    8000224e:	ed06a583          	lw	a1,-304(a3)
    80002252:	8556                	mv	a0,s5
    80002254:	a4afe0ef          	jal	8000049e <printf>
    printf("\n");
    80002258:	8552                	mv	a0,s4
    8000225a:	a44fe0ef          	jal	8000049e <printf>
  for(p = proc; p < &proc[NPROC]; p++){
    8000225e:	17048493          	add	s1,s1,368
    80002262:	03248263          	beq	s1,s2,80002286 <procdump+0x8e>
    if(p->state == UNUSED)
    80002266:	86a6                	mv	a3,s1
    80002268:	eb84a783          	lw	a5,-328(s1)
    8000226c:	dbed                	beqz	a5,8000225e <procdump+0x66>
      state = "???";
    8000226e:	864e                	mv	a2,s3
    if(p->state >= 0 && p->state < NELEM(states) && states[p->state])
    80002270:	fcfb6fe3          	bltu	s6,a5,8000224e <procdump+0x56>
    80002274:	02079713          	sll	a4,a5,0x20
    80002278:	01d75793          	srl	a5,a4,0x1d
    8000227c:	97de                	add	a5,a5,s7
    8000227e:	6390                	ld	a2,0(a5)
    80002280:	f679                	bnez	a2,8000224e <procdump+0x56>
      state = "???";
    80002282:	864e                	mv	a2,s3
    80002284:	b7e9                	j	8000224e <procdump+0x56>
  }
}
    80002286:	60a6                	ld	ra,72(sp)
    80002288:	6406                	ld	s0,64(sp)
    8000228a:	74e2                	ld	s1,56(sp)
    8000228c:	7942                	ld	s2,48(sp)
    8000228e:	79a2                	ld	s3,40(sp)
    80002290:	7a02                	ld	s4,32(sp)
    80002292:	6ae2                	ld	s5,24(sp)
    80002294:	6b42                	ld	s6,16(sp)
    80002296:	6ba2                	ld	s7,8(sp)
    80002298:	6161                	add	sp,sp,80
    8000229a:	8082                	ret

000000008000229c <swtch>:
    8000229c:	00153023          	sd	ra,0(a0)
    800022a0:	00253423          	sd	sp,8(a0)
    800022a4:	e900                	sd	s0,16(a0)
    800022a6:	ed04                	sd	s1,24(a0)
    800022a8:	03253023          	sd	s2,32(a0)
    800022ac:	03353423          	sd	s3,40(a0)
    800022b0:	03453823          	sd	s4,48(a0)
    800022b4:	03553c23          	sd	s5,56(a0)
    800022b8:	05653023          	sd	s6,64(a0)
    800022bc:	05753423          	sd	s7,72(a0)
    800022c0:	05853823          	sd	s8,80(a0)
    800022c4:	05953c23          	sd	s9,88(a0)
    800022c8:	07a53023          	sd	s10,96(a0)
    800022cc:	07b53423          	sd	s11,104(a0)
    800022d0:	0005b083          	ld	ra,0(a1)
    800022d4:	0085b103          	ld	sp,8(a1)
    800022d8:	6980                	ld	s0,16(a1)
    800022da:	6d84                	ld	s1,24(a1)
    800022dc:	0205b903          	ld	s2,32(a1)
    800022e0:	0285b983          	ld	s3,40(a1)
    800022e4:	0305ba03          	ld	s4,48(a1)
    800022e8:	0385ba83          	ld	s5,56(a1)
    800022ec:	0405bb03          	ld	s6,64(a1)
    800022f0:	0485bb83          	ld	s7,72(a1)
    800022f4:	0505bc03          	ld	s8,80(a1)
    800022f8:	0585bc83          	ld	s9,88(a1)
    800022fc:	0605bd03          	ld	s10,96(a1)
    80002300:	0685bd83          	ld	s11,104(a1)
    80002304:	8082                	ret

0000000080002306 <trapinit>:

extern int devintr();

void
trapinit(void)
{
    80002306:	1141                	add	sp,sp,-16
    80002308:	e406                	sd	ra,8(sp)
    8000230a:	e022                	sd	s0,0(sp)
    8000230c:	0800                	add	s0,sp,16
  initlock(&tickslock, "time");
    8000230e:	00005597          	auipc	a1,0x5
    80002312:	02258593          	add	a1,a1,34 # 80007330 <states.0+0x30>
    80002316:	00014517          	auipc	a0,0x14
    8000231a:	8ca50513          	add	a0,a0,-1846 # 80015be0 <tickslock>
    8000231e:	803fe0ef          	jal	80000b20 <initlock>
}
    80002322:	60a2                	ld	ra,8(sp)
    80002324:	6402                	ld	s0,0(sp)
    80002326:	0141                	add	sp,sp,16
    80002328:	8082                	ret

000000008000232a <trapinithart>:

/* set up to take exceptions and traps while in the kernel. */
void
trapinithart(void)
{
    8000232a:	1141                	add	sp,sp,-16
    8000232c:	e422                	sd	s0,8(sp)
    8000232e:	0800                	add	s0,sp,16
  asm volatile("csrw stvec, %0" : : "r" (x));
    80002330:	00003797          	auipc	a5,0x3
    80002334:	d3078793          	add	a5,a5,-720 # 80005060 <kernelvec>
    80002338:	10579073          	csrw	stvec,a5
  w_stvec((uint64)kernelvec);
}
    8000233c:	6422                	ld	s0,8(sp)
    8000233e:	0141                	add	sp,sp,16
    80002340:	8082                	ret

0000000080002342 <usertrapret>:
/* */
/* return to user space */
/* */
void
usertrapret(void)
{
    80002342:	1141                	add	sp,sp,-16
    80002344:	e406                	sd	ra,8(sp)
    80002346:	e022                	sd	s0,0(sp)
    80002348:	0800                	add	s0,sp,16
  struct proc *p = myproc();
    8000234a:	ce6ff0ef          	jal	80001830 <myproc>
  asm volatile("csrr %0, sstatus" : "=r" (x) );
    8000234e:	100027f3          	csrr	a5,sstatus
  w_sstatus(r_sstatus() & ~SSTATUS_SIE);
    80002352:	9bf5                	and	a5,a5,-3
  asm volatile("csrw sstatus, %0" : : "r" (x));
    80002354:	10079073          	csrw	sstatus,a5
  /* kerneltrap() to usertrap(), so turn off interrupts until */
  /* we're back in user space, where usertrap() is correct. */
  intr_off();

  /* send syscalls, interrupts, and exceptions to uservec in trampoline.S */
  uint64 trampoline_uservec = TRAMPOLINE + (uservec - trampoline);
    80002358:	00004697          	auipc	a3,0x4
    8000235c:	ca868693          	add	a3,a3,-856 # 80006000 <_trampoline>
    80002360:	00004717          	auipc	a4,0x4
    80002364:	ca070713          	add	a4,a4,-864 # 80006000 <_trampoline>
    80002368:	8f15                	sub	a4,a4,a3
    8000236a:	040007b7          	lui	a5,0x4000
    8000236e:	17fd                	add	a5,a5,-1 # 3ffffff <_entry-0x7c000001>
    80002370:	07b2                	sll	a5,a5,0xc
    80002372:	973e                	add	a4,a4,a5
  asm volatile("csrw stvec, %0" : : "r" (x));
    80002374:	10571073          	csrw	stvec,a4
  w_stvec(trampoline_uservec);

  /* set up trapframe values that uservec will need when */
  /* the process next traps into the kernel. */
  p->trapframe->kernel_satp = r_satp();         /* kernel page table */
    80002378:	7138                	ld	a4,96(a0)
  asm volatile("csrr %0, satp" : "=r" (x) );
    8000237a:	18002673          	csrr	a2,satp
    8000237e:	e310                	sd	a2,0(a4)
  p->trapframe->kernel_sp = p->kstack + PGSIZE; /* process's kernel stack */
    80002380:	7130                	ld	a2,96(a0)
    80002382:	6538                	ld	a4,72(a0)
    80002384:	6585                	lui	a1,0x1
    80002386:	972e                	add	a4,a4,a1
    80002388:	e618                	sd	a4,8(a2)
  p->trapframe->kernel_trap = (uint64)usertrap;
    8000238a:	7138                	ld	a4,96(a0)
    8000238c:	00000617          	auipc	a2,0x0
    80002390:	10c60613          	add	a2,a2,268 # 80002498 <usertrap>
    80002394:	eb10                	sd	a2,16(a4)
  p->trapframe->kernel_hartid = r_tp();         /* hartid for cpuid() */
    80002396:	7138                	ld	a4,96(a0)
  asm volatile("mv %0, tp" : "=r" (x) );
    80002398:	8612                	mv	a2,tp
    8000239a:	f310                	sd	a2,32(a4)
  asm volatile("csrr %0, sstatus" : "=r" (x) );
    8000239c:	10002773          	csrr	a4,sstatus
  /* set up the registers that trampoline.S's sret will use */
  /* to get to user space. */
  
  /* set S Previous Privilege mode to User. */
  unsigned long x = r_sstatus();
  x &= ~SSTATUS_SPP; /* clear SPP to 0 for user mode */
    800023a0:	eff77713          	and	a4,a4,-257
  x |= SSTATUS_SPIE; /* enable interrupts in user mode */
    800023a4:	02076713          	or	a4,a4,32
  asm volatile("csrw sstatus, %0" : : "r" (x));
    800023a8:	10071073          	csrw	sstatus,a4
  w_sstatus(x);

  /* set S Exception Program Counter to the saved user pc. */
  w_sepc(p->trapframe->epc);
    800023ac:	7138                	ld	a4,96(a0)
  asm volatile("csrw sepc, %0" : : "r" (x));
    800023ae:	6f18                	ld	a4,24(a4)
    800023b0:	14171073          	csrw	sepc,a4

  /* tell trampoline.S the user page table to switch to. */
  uint64 satp = MAKE_SATP(p->pagetable);
    800023b4:	6d28                	ld	a0,88(a0)
    800023b6:	8131                	srl	a0,a0,0xc

  /* jump to userret in trampoline.S at the top of memory, which  */
  /* switches to the user page table, restores user registers, */
  /* and switches to user mode with sret. */
  uint64 trampoline_userret = TRAMPOLINE + (userret - trampoline);
    800023b8:	00004717          	auipc	a4,0x4
    800023bc:	ce470713          	add	a4,a4,-796 # 8000609c <userret>
    800023c0:	8f15                	sub	a4,a4,a3
    800023c2:	97ba                	add	a5,a5,a4
  ((void (*)(uint64))trampoline_userret)(satp);
    800023c4:	577d                	li	a4,-1
    800023c6:	177e                	sll	a4,a4,0x3f
    800023c8:	8d59                	or	a0,a0,a4
    800023ca:	9782                	jalr	a5
}
    800023cc:	60a2                	ld	ra,8(sp)
    800023ce:	6402                	ld	s0,0(sp)
    800023d0:	0141                	add	sp,sp,16
    800023d2:	8082                	ret

00000000800023d4 <clockintr>:
  w_sstatus(sstatus);
}

void
clockintr()
{
    800023d4:	1101                	add	sp,sp,-32
    800023d6:	ec06                	sd	ra,24(sp)
    800023d8:	e822                	sd	s0,16(sp)
    800023da:	e426                	sd	s1,8(sp)
    800023dc:	1000                	add	s0,sp,32
  if(cpuid() == 0){
    800023de:	c26ff0ef          	jal	80001804 <cpuid>
    800023e2:	cd19                	beqz	a0,80002400 <clockintr+0x2c>
  asm volatile("csrr %0, time" : "=r" (x) );
    800023e4:	c01027f3          	rdtime	a5
  }

  /* ask for the next timer interrupt. this also clears */
  /* the interrupt request. 1000000 is about a tenth */
  /* of a second. */
  w_stimecmp(r_time() + 1000000);
    800023e8:	000f4737          	lui	a4,0xf4
    800023ec:	24070713          	add	a4,a4,576 # f4240 <_entry-0x7ff0bdc0>
    800023f0:	97ba                	add	a5,a5,a4
  asm volatile("csrw 0x14d, %0" : : "r" (x));
    800023f2:	14d79073          	csrw	stimecmp,a5
}
    800023f6:	60e2                	ld	ra,24(sp)
    800023f8:	6442                	ld	s0,16(sp)
    800023fa:	64a2                	ld	s1,8(sp)
    800023fc:	6105                	add	sp,sp,32
    800023fe:	8082                	ret
    acquire(&tickslock);
    80002400:	00013497          	auipc	s1,0x13
    80002404:	7e048493          	add	s1,s1,2016 # 80015be0 <tickslock>
    80002408:	8526                	mv	a0,s1
    8000240a:	f96fe0ef          	jal	80000ba0 <acquire>
    ticks++;
    8000240e:	00005517          	auipc	a0,0x5
    80002412:	67250513          	add	a0,a0,1650 # 80007a80 <ticks>
    80002416:	411c                	lw	a5,0(a0)
    80002418:	2785                	addw	a5,a5,1
    8000241a:	c11c                	sw	a5,0(a0)
    wakeup(&ticks);
    8000241c:	a39ff0ef          	jal	80001e54 <wakeup>
    release(&tickslock);
    80002420:	8526                	mv	a0,s1
    80002422:	817fe0ef          	jal	80000c38 <release>
    80002426:	bf7d                	j	800023e4 <clockintr+0x10>

0000000080002428 <devintr>:
/* returns 2 if timer interrupt, */
/* 1 if other device, */
/* 0 if not recognized. */
int
devintr()
{
    80002428:	1101                	add	sp,sp,-32
    8000242a:	ec06                	sd	ra,24(sp)
    8000242c:	e822                	sd	s0,16(sp)
    8000242e:	e426                	sd	s1,8(sp)
    80002430:	1000                	add	s0,sp,32
  asm volatile("csrr %0, scause" : "=r" (x) );
    80002432:	14202773          	csrr	a4,scause
  uint64 scause = r_scause();

  if(scause == 0x8000000000000009L){
    80002436:	57fd                	li	a5,-1
    80002438:	17fe                	sll	a5,a5,0x3f
    8000243a:	07a5                	add	a5,a5,9
    8000243c:	00f70d63          	beq	a4,a5,80002456 <devintr+0x2e>
    /* now allowed to interrupt again. */
    if(irq)
      plic_complete(irq);

    return 1;
  } else if(scause == 0x8000000000000005L){
    80002440:	57fd                	li	a5,-1
    80002442:	17fe                	sll	a5,a5,0x3f
    80002444:	0795                	add	a5,a5,5
    /* timer interrupt. */
    clockintr();
    return 2;
  } else {
    return 0;
    80002446:	4501                	li	a0,0
  } else if(scause == 0x8000000000000005L){
    80002448:	04f70463          	beq	a4,a5,80002490 <devintr+0x68>
  }
}
    8000244c:	60e2                	ld	ra,24(sp)
    8000244e:	6442                	ld	s0,16(sp)
    80002450:	64a2                	ld	s1,8(sp)
    80002452:	6105                	add	sp,sp,32
    80002454:	8082                	ret
    int irq = plic_claim();
    80002456:	4b3020ef          	jal	80005108 <plic_claim>
    8000245a:	84aa                	mv	s1,a0
    if(irq == UART0_IRQ){
    8000245c:	47a9                	li	a5,10
    8000245e:	02f50363          	beq	a0,a5,80002484 <devintr+0x5c>
    } else if(irq == VIRTIO0_IRQ){
    80002462:	4785                	li	a5,1
    80002464:	02f50363          	beq	a0,a5,8000248a <devintr+0x62>
    return 1;
    80002468:	4505                	li	a0,1
    } else if(irq){
    8000246a:	d0ed                	beqz	s1,8000244c <devintr+0x24>
      printf("unexpected interrupt irq=%d\n", irq);
    8000246c:	85a6                	mv	a1,s1
    8000246e:	00005517          	auipc	a0,0x5
    80002472:	eca50513          	add	a0,a0,-310 # 80007338 <states.0+0x38>
    80002476:	828fe0ef          	jal	8000049e <printf>
      plic_complete(irq);
    8000247a:	8526                	mv	a0,s1
    8000247c:	4ad020ef          	jal	80005128 <plic_complete>
    return 1;
    80002480:	4505                	li	a0,1
    80002482:	b7e9                	j	8000244c <devintr+0x24>
      uartintr();
    80002484:	d2efe0ef          	jal	800009b2 <uartintr>
    if(irq)
    80002488:	bfcd                	j	8000247a <devintr+0x52>
      virtio_disk_intr();
    8000248a:	108030ef          	jal	80005592 <virtio_disk_intr>
    if(irq)
    8000248e:	b7f5                	j	8000247a <devintr+0x52>
    clockintr();
    80002490:	f45ff0ef          	jal	800023d4 <clockintr>
    return 2;
    80002494:	4509                	li	a0,2
    80002496:	bf5d                	j	8000244c <devintr+0x24>

0000000080002498 <usertrap>:
{
    80002498:	1101                	add	sp,sp,-32
    8000249a:	ec06                	sd	ra,24(sp)
    8000249c:	e822                	sd	s0,16(sp)
    8000249e:	e426                	sd	s1,8(sp)
    800024a0:	e04a                	sd	s2,0(sp)
    800024a2:	1000                	add	s0,sp,32
  asm volatile("csrr %0, sstatus" : "=r" (x) );
    800024a4:	100027f3          	csrr	a5,sstatus
  if((r_sstatus() & SSTATUS_SPP) != 0)
    800024a8:	1007f793          	and	a5,a5,256
    800024ac:	ef85                	bnez	a5,800024e4 <usertrap+0x4c>
  asm volatile("csrw stvec, %0" : : "r" (x));
    800024ae:	00003797          	auipc	a5,0x3
    800024b2:	bb278793          	add	a5,a5,-1102 # 80005060 <kernelvec>
    800024b6:	10579073          	csrw	stvec,a5
  struct proc *p = myproc();
    800024ba:	b76ff0ef          	jal	80001830 <myproc>
    800024be:	84aa                	mv	s1,a0
  p->trapframe->epc = r_sepc();
    800024c0:	713c                	ld	a5,96(a0)
  asm volatile("csrr %0, sepc" : "=r" (x) );
    800024c2:	14102773          	csrr	a4,sepc
    800024c6:	ef98                	sd	a4,24(a5)
  asm volatile("csrr %0, scause" : "=r" (x) );
    800024c8:	14202773          	csrr	a4,scause
  if(r_scause() == 8){
    800024cc:	47a1                	li	a5,8
    800024ce:	02f70163          	beq	a4,a5,800024f0 <usertrap+0x58>
  } else if((which_dev = devintr()) != 0){
    800024d2:	f57ff0ef          	jal	80002428 <devintr>
    800024d6:	892a                	mv	s2,a0
    800024d8:	c135                	beqz	a0,8000253c <usertrap+0xa4>
  if(killed(p))
    800024da:	8526                	mv	a0,s1
    800024dc:	b65ff0ef          	jal	80002040 <killed>
    800024e0:	cd1d                	beqz	a0,8000251e <usertrap+0x86>
    800024e2:	a81d                	j	80002518 <usertrap+0x80>
    panic("usertrap: not from user mode");
    800024e4:	00005517          	auipc	a0,0x5
    800024e8:	e7450513          	add	a0,a0,-396 # 80007358 <states.0+0x58>
    800024ec:	a72fe0ef          	jal	8000075e <panic>
    if(killed(p))
    800024f0:	b51ff0ef          	jal	80002040 <killed>
    800024f4:	e121                	bnez	a0,80002534 <usertrap+0x9c>
    p->trapframe->epc += 4;
    800024f6:	70b8                	ld	a4,96(s1)
    800024f8:	6f1c                	ld	a5,24(a4)
    800024fa:	0791                	add	a5,a5,4
    800024fc:	ef1c                	sd	a5,24(a4)
  asm volatile("csrr %0, sstatus" : "=r" (x) );
    800024fe:	100027f3          	csrr	a5,sstatus
  w_sstatus(r_sstatus() | SSTATUS_SIE);
    80002502:	0027e793          	or	a5,a5,2
  asm volatile("csrw sstatus, %0" : : "r" (x));
    80002506:	10079073          	csrw	sstatus,a5
    syscall();
    8000250a:	248000ef          	jal	80002752 <syscall>
  if(killed(p))
    8000250e:	8526                	mv	a0,s1
    80002510:	b31ff0ef          	jal	80002040 <killed>
    80002514:	c901                	beqz	a0,80002524 <usertrap+0x8c>
    80002516:	4901                	li	s2,0
    exit(-1);
    80002518:	557d                	li	a0,-1
    8000251a:	9fbff0ef          	jal	80001f14 <exit>
  if(which_dev == 2)
    8000251e:	4789                	li	a5,2
    80002520:	04f90563          	beq	s2,a5,8000256a <usertrap+0xd2>
  usertrapret();
    80002524:	e1fff0ef          	jal	80002342 <usertrapret>
}
    80002528:	60e2                	ld	ra,24(sp)
    8000252a:	6442                	ld	s0,16(sp)
    8000252c:	64a2                	ld	s1,8(sp)
    8000252e:	6902                	ld	s2,0(sp)
    80002530:	6105                	add	sp,sp,32
    80002532:	8082                	ret
      exit(-1);
    80002534:	557d                	li	a0,-1
    80002536:	9dfff0ef          	jal	80001f14 <exit>
    8000253a:	bf75                	j	800024f6 <usertrap+0x5e>
  asm volatile("csrr %0, scause" : "=r" (x) );
    8000253c:	142025f3          	csrr	a1,scause
    printf("usertrap(): unexpected scause 0x%lx pid=%d\n", r_scause(), p->pid);
    80002540:	5890                	lw	a2,48(s1)
    80002542:	00005517          	auipc	a0,0x5
    80002546:	e3650513          	add	a0,a0,-458 # 80007378 <states.0+0x78>
    8000254a:	f55fd0ef          	jal	8000049e <printf>
  asm volatile("csrr %0, sepc" : "=r" (x) );
    8000254e:	141025f3          	csrr	a1,sepc
  asm volatile("csrr %0, stval" : "=r" (x) );
    80002552:	14302673          	csrr	a2,stval
    printf("            sepc=0x%lx stval=0x%lx\n", r_sepc(), r_stval());
    80002556:	00005517          	auipc	a0,0x5
    8000255a:	e5250513          	add	a0,a0,-430 # 800073a8 <states.0+0xa8>
    8000255e:	f41fd0ef          	jal	8000049e <printf>
    setkilled(p);
    80002562:	8526                	mv	a0,s1
    80002564:	ab9ff0ef          	jal	8000201c <setkilled>
    80002568:	b75d                	j	8000250e <usertrap+0x76>
    yield();
    8000256a:	873ff0ef          	jal	80001ddc <yield>
    8000256e:	bf5d                	j	80002524 <usertrap+0x8c>

0000000080002570 <kerneltrap>:
{
    80002570:	7179                	add	sp,sp,-48
    80002572:	f406                	sd	ra,40(sp)
    80002574:	f022                	sd	s0,32(sp)
    80002576:	ec26                	sd	s1,24(sp)
    80002578:	e84a                	sd	s2,16(sp)
    8000257a:	e44e                	sd	s3,8(sp)
    8000257c:	1800                	add	s0,sp,48
  asm volatile("csrr %0, sepc" : "=r" (x) );
    8000257e:	14102973          	csrr	s2,sepc
  asm volatile("csrr %0, sstatus" : "=r" (x) );
    80002582:	100024f3          	csrr	s1,sstatus
  asm volatile("csrr %0, scause" : "=r" (x) );
    80002586:	142029f3          	csrr	s3,scause
  if((sstatus & SSTATUS_SPP) == 0)
    8000258a:	1004f793          	and	a5,s1,256
    8000258e:	c795                	beqz	a5,800025ba <kerneltrap+0x4a>
  asm volatile("csrr %0, sstatus" : "=r" (x) );
    80002590:	100027f3          	csrr	a5,sstatus
  return (x & SSTATUS_SIE) != 0;
    80002594:	8b89                	and	a5,a5,2
  if(intr_get() != 0)
    80002596:	eb85                	bnez	a5,800025c6 <kerneltrap+0x56>
  if((which_dev = devintr()) == 0){
    80002598:	e91ff0ef          	jal	80002428 <devintr>
    8000259c:	c91d                	beqz	a0,800025d2 <kerneltrap+0x62>
  if(which_dev == 2 && myproc() != 0)
    8000259e:	4789                	li	a5,2
    800025a0:	04f50a63          	beq	a0,a5,800025f4 <kerneltrap+0x84>
  asm volatile("csrw sepc, %0" : : "r" (x));
    800025a4:	14191073          	csrw	sepc,s2
  asm volatile("csrw sstatus, %0" : : "r" (x));
    800025a8:	10049073          	csrw	sstatus,s1
}
    800025ac:	70a2                	ld	ra,40(sp)
    800025ae:	7402                	ld	s0,32(sp)
    800025b0:	64e2                	ld	s1,24(sp)
    800025b2:	6942                	ld	s2,16(sp)
    800025b4:	69a2                	ld	s3,8(sp)
    800025b6:	6145                	add	sp,sp,48
    800025b8:	8082                	ret
    panic("kerneltrap: not from supervisor mode");
    800025ba:	00005517          	auipc	a0,0x5
    800025be:	e1650513          	add	a0,a0,-490 # 800073d0 <states.0+0xd0>
    800025c2:	99cfe0ef          	jal	8000075e <panic>
    panic("kerneltrap: interrupts enabled");
    800025c6:	00005517          	auipc	a0,0x5
    800025ca:	e3250513          	add	a0,a0,-462 # 800073f8 <states.0+0xf8>
    800025ce:	990fe0ef          	jal	8000075e <panic>
  asm volatile("csrr %0, sepc" : "=r" (x) );
    800025d2:	14102673          	csrr	a2,sepc
  asm volatile("csrr %0, stval" : "=r" (x) );
    800025d6:	143026f3          	csrr	a3,stval
    printf("scause=0x%lx sepc=0x%lx stval=0x%lx\n", scause, r_sepc(), r_stval());
    800025da:	85ce                	mv	a1,s3
    800025dc:	00005517          	auipc	a0,0x5
    800025e0:	e3c50513          	add	a0,a0,-452 # 80007418 <states.0+0x118>
    800025e4:	ebbfd0ef          	jal	8000049e <printf>
    panic("kerneltrap");
    800025e8:	00005517          	auipc	a0,0x5
    800025ec:	e5850513          	add	a0,a0,-424 # 80007440 <states.0+0x140>
    800025f0:	96efe0ef          	jal	8000075e <panic>
  if(which_dev == 2 && myproc() != 0)
    800025f4:	a3cff0ef          	jal	80001830 <myproc>
    800025f8:	d555                	beqz	a0,800025a4 <kerneltrap+0x34>
    yield();
    800025fa:	fe2ff0ef          	jal	80001ddc <yield>
    800025fe:	b75d                	j	800025a4 <kerneltrap+0x34>

0000000080002600 <argraw>:
  return strlen(buf);
}

static uint64
argraw(int n)
{
    80002600:	1101                	add	sp,sp,-32
    80002602:	ec06                	sd	ra,24(sp)
    80002604:	e822                	sd	s0,16(sp)
    80002606:	e426                	sd	s1,8(sp)
    80002608:	1000                	add	s0,sp,32
    8000260a:	84aa                	mv	s1,a0
  struct proc *p = myproc();
    8000260c:	a24ff0ef          	jal	80001830 <myproc>
  switch (n) {
    80002610:	4795                	li	a5,5
    80002612:	0497e163          	bltu	a5,s1,80002654 <argraw+0x54>
    80002616:	048a                	sll	s1,s1,0x2
    80002618:	00005717          	auipc	a4,0x5
    8000261c:	f2070713          	add	a4,a4,-224 # 80007538 <states.0+0x238>
    80002620:	94ba                	add	s1,s1,a4
    80002622:	409c                	lw	a5,0(s1)
    80002624:	97ba                	add	a5,a5,a4
    80002626:	8782                	jr	a5
  case 0:
    return p->trapframe->a0;
    80002628:	713c                	ld	a5,96(a0)
    8000262a:	7ba8                	ld	a0,112(a5)
  case 5:
    return p->trapframe->a5;
  }
  panic("argraw");
  return -1;
}
    8000262c:	60e2                	ld	ra,24(sp)
    8000262e:	6442                	ld	s0,16(sp)
    80002630:	64a2                	ld	s1,8(sp)
    80002632:	6105                	add	sp,sp,32
    80002634:	8082                	ret
    return p->trapframe->a1;
    80002636:	713c                	ld	a5,96(a0)
    80002638:	7fa8                	ld	a0,120(a5)
    8000263a:	bfcd                	j	8000262c <argraw+0x2c>
    return p->trapframe->a2;
    8000263c:	713c                	ld	a5,96(a0)
    8000263e:	63c8                	ld	a0,128(a5)
    80002640:	b7f5                	j	8000262c <argraw+0x2c>
    return p->trapframe->a3;
    80002642:	713c                	ld	a5,96(a0)
    80002644:	67c8                	ld	a0,136(a5)
    80002646:	b7dd                	j	8000262c <argraw+0x2c>
    return p->trapframe->a4;
    80002648:	713c                	ld	a5,96(a0)
    8000264a:	6bc8                	ld	a0,144(a5)
    8000264c:	b7c5                	j	8000262c <argraw+0x2c>
    return p->trapframe->a5;
    8000264e:	713c                	ld	a5,96(a0)
    80002650:	6fc8                	ld	a0,152(a5)
    80002652:	bfe9                	j	8000262c <argraw+0x2c>
  panic("argraw");
    80002654:	00005517          	auipc	a0,0x5
    80002658:	dfc50513          	add	a0,a0,-516 # 80007450 <states.0+0x150>
    8000265c:	902fe0ef          	jal	8000075e <panic>

0000000080002660 <fetchaddr>:
{
    80002660:	1101                	add	sp,sp,-32
    80002662:	ec06                	sd	ra,24(sp)
    80002664:	e822                	sd	s0,16(sp)
    80002666:	e426                	sd	s1,8(sp)
    80002668:	e04a                	sd	s2,0(sp)
    8000266a:	1000                	add	s0,sp,32
    8000266c:	84aa                	mv	s1,a0
    8000266e:	892e                	mv	s2,a1
  struct proc *p = myproc();
    80002670:	9c0ff0ef          	jal	80001830 <myproc>
  if(addr >= p->sz || addr+sizeof(uint64) > p->sz) /* both tests needed, in case of overflow */
    80002674:	693c                	ld	a5,80(a0)
    80002676:	02f4f663          	bgeu	s1,a5,800026a2 <fetchaddr+0x42>
    8000267a:	00848713          	add	a4,s1,8
    8000267e:	02e7e463          	bltu	a5,a4,800026a6 <fetchaddr+0x46>
  if(copyin(p->pagetable, (char *)ip, addr, sizeof(*ip)) != 0)
    80002682:	46a1                	li	a3,8
    80002684:	8626                	mv	a2,s1
    80002686:	85ca                	mv	a1,s2
    80002688:	6d28                	ld	a0,88(a0)
    8000268a:	f17fe0ef          	jal	800015a0 <copyin>
    8000268e:	00a03533          	snez	a0,a0
    80002692:	40a00533          	neg	a0,a0
}
    80002696:	60e2                	ld	ra,24(sp)
    80002698:	6442                	ld	s0,16(sp)
    8000269a:	64a2                	ld	s1,8(sp)
    8000269c:	6902                	ld	s2,0(sp)
    8000269e:	6105                	add	sp,sp,32
    800026a0:	8082                	ret
    return -1;
    800026a2:	557d                	li	a0,-1
    800026a4:	bfcd                	j	80002696 <fetchaddr+0x36>
    800026a6:	557d                	li	a0,-1
    800026a8:	b7fd                	j	80002696 <fetchaddr+0x36>

00000000800026aa <fetchstr>:
{
    800026aa:	7179                	add	sp,sp,-48
    800026ac:	f406                	sd	ra,40(sp)
    800026ae:	f022                	sd	s0,32(sp)
    800026b0:	ec26                	sd	s1,24(sp)
    800026b2:	e84a                	sd	s2,16(sp)
    800026b4:	e44e                	sd	s3,8(sp)
    800026b6:	1800                	add	s0,sp,48
    800026b8:	892a                	mv	s2,a0
    800026ba:	84ae                	mv	s1,a1
    800026bc:	89b2                	mv	s3,a2
  struct proc *p = myproc();
    800026be:	972ff0ef          	jal	80001830 <myproc>
  if(copyinstr(p->pagetable, buf, addr, max) < 0)
    800026c2:	86ce                	mv	a3,s3
    800026c4:	864a                	mv	a2,s2
    800026c6:	85a6                	mv	a1,s1
    800026c8:	6d28                	ld	a0,88(a0)
    800026ca:	f5dfe0ef          	jal	80001626 <copyinstr>
    800026ce:	00054c63          	bltz	a0,800026e6 <fetchstr+0x3c>
  return strlen(buf);
    800026d2:	8526                	mv	a0,s1
    800026d4:	f16fe0ef          	jal	80000dea <strlen>
}
    800026d8:	70a2                	ld	ra,40(sp)
    800026da:	7402                	ld	s0,32(sp)
    800026dc:	64e2                	ld	s1,24(sp)
    800026de:	6942                	ld	s2,16(sp)
    800026e0:	69a2                	ld	s3,8(sp)
    800026e2:	6145                	add	sp,sp,48
    800026e4:	8082                	ret
    return -1;
    800026e6:	557d                	li	a0,-1
    800026e8:	bfc5                	j	800026d8 <fetchstr+0x2e>

00000000800026ea <argint>:

/* Fetch the nth 32-bit system call argument. */
void
argint(int n, int *ip)
{
    800026ea:	1101                	add	sp,sp,-32
    800026ec:	ec06                	sd	ra,24(sp)
    800026ee:	e822                	sd	s0,16(sp)
    800026f0:	e426                	sd	s1,8(sp)
    800026f2:	1000                	add	s0,sp,32
    800026f4:	84ae                	mv	s1,a1
  *ip = argraw(n);
    800026f6:	f0bff0ef          	jal	80002600 <argraw>
    800026fa:	c088                	sw	a0,0(s1)
}
    800026fc:	60e2                	ld	ra,24(sp)
    800026fe:	6442                	ld	s0,16(sp)
    80002700:	64a2                	ld	s1,8(sp)
    80002702:	6105                	add	sp,sp,32
    80002704:	8082                	ret

0000000080002706 <argaddr>:
/* Retrieve an argument as a pointer. */
/* Doesn't check for legality, since */
/* copyin/copyout will do that. */
void
argaddr(int n, uint64 *ip)
{
    80002706:	1101                	add	sp,sp,-32
    80002708:	ec06                	sd	ra,24(sp)
    8000270a:	e822                	sd	s0,16(sp)
    8000270c:	e426                	sd	s1,8(sp)
    8000270e:	1000                	add	s0,sp,32
    80002710:	84ae                	mv	s1,a1
  *ip = argraw(n);
    80002712:	eefff0ef          	jal	80002600 <argraw>
    80002716:	e088                	sd	a0,0(s1)
}
    80002718:	60e2                	ld	ra,24(sp)
    8000271a:	6442                	ld	s0,16(sp)
    8000271c:	64a2                	ld	s1,8(sp)
    8000271e:	6105                	add	sp,sp,32
    80002720:	8082                	ret

0000000080002722 <argstr>:
/* Fetch the nth word-sized system call argument as a null-terminated string. */
/* Copies into buf, at most max. */
/* Returns string length if OK (including nul), -1 if error. */
int
argstr(int n, char *buf, int max)
{
    80002722:	7179                	add	sp,sp,-48
    80002724:	f406                	sd	ra,40(sp)
    80002726:	f022                	sd	s0,32(sp)
    80002728:	ec26                	sd	s1,24(sp)
    8000272a:	e84a                	sd	s2,16(sp)
    8000272c:	1800                	add	s0,sp,48
    8000272e:	84ae                	mv	s1,a1
    80002730:	8932                	mv	s2,a2
  uint64 addr;
  argaddr(n, &addr);
    80002732:	fd840593          	add	a1,s0,-40
    80002736:	fd1ff0ef          	jal	80002706 <argaddr>
  return fetchstr(addr, buf, max);
    8000273a:	864a                	mv	a2,s2
    8000273c:	85a6                	mv	a1,s1
    8000273e:	fd843503          	ld	a0,-40(s0)
    80002742:	f69ff0ef          	jal	800026aa <fetchstr>
}
    80002746:	70a2                	ld	ra,40(sp)
    80002748:	7402                	ld	s0,32(sp)
    8000274a:	64e2                	ld	s1,24(sp)
    8000274c:	6942                	ld	s2,16(sp)
    8000274e:	6145                	add	sp,sp,48
    80002750:	8082                	ret

0000000080002752 <syscall>:



void
syscall(void)
{
    80002752:	7179                	add	sp,sp,-48
    80002754:	f406                	sd	ra,40(sp)
    80002756:	f022                	sd	s0,32(sp)
    80002758:	ec26                	sd	s1,24(sp)
    8000275a:	e84a                	sd	s2,16(sp)
    8000275c:	e44e                	sd	s3,8(sp)
    8000275e:	1800                	add	s0,sp,48
    int num;
    struct proc *p = myproc();
    80002760:	8d0ff0ef          	jal	80001830 <myproc>
    80002764:	84aa                	mv	s1,a0

    num = p->trapframe->a7;
    80002766:	06053903          	ld	s2,96(a0)
    8000276a:	0a893783          	ld	a5,168(s2)
    8000276e:	0007899b          	sext.w	s3,a5
    if(num > 0 && num < NELEM(syscalls) && syscalls[num]) {
    80002772:	37fd                	addw	a5,a5,-1
    80002774:	4755                	li	a4,21
    80002776:	04f76463          	bltu	a4,a5,800027be <syscall+0x6c>
    8000277a:	00399713          	sll	a4,s3,0x3
    8000277e:	00005797          	auipc	a5,0x5
    80002782:	dd278793          	add	a5,a5,-558 # 80007550 <syscalls>
    80002786:	97ba                	add	a5,a5,a4
    80002788:	639c                	ld	a5,0(a5)
    8000278a:	cb95                	beqz	a5,800027be <syscall+0x6c>
        /* Use num to lookup the system call function for num, call it, */
        /* and store its return value in p->trapframe->a0 */
        p->trapframe->a0 = syscalls[num]();
    8000278c:	9782                	jalr	a5
    8000278e:	06a93823          	sd	a0,112(s2)

        /* Assignment 1E update */
        if((p->trace_mask & (1 << num)) != 0){
    80002792:	40bc                	lw	a5,64(s1)
    80002794:	4137d7bb          	sraw	a5,a5,s3
    80002798:	8b85                	and	a5,a5,1
    8000279a:	cf9d                	beqz	a5,800027d8 <syscall+0x86>
            int checkPoint = (num < NELEM(syscalls_names));
            char* name = (checkPoint) ? syscalls_names[num] : "unknown"; 

            printf("%d: syscall %s -> %ld\n", p->pid, name, p->trapframe->a0);
    8000279c:	70b8                	ld	a4,96(s1)
            char* name = (checkPoint) ? syscalls_names[num] : "unknown"; 
    8000279e:	098e                	sll	s3,s3,0x3
    800027a0:	00005797          	auipc	a5,0x5
    800027a4:	db078793          	add	a5,a5,-592 # 80007550 <syscalls>
    800027a8:	97ce                	add	a5,a5,s3
            printf("%d: syscall %s -> %ld\n", p->pid, name, p->trapframe->a0);
    800027aa:	7b34                	ld	a3,112(a4)
    800027ac:	7fd0                	ld	a2,184(a5)
    800027ae:	588c                	lw	a1,48(s1)
    800027b0:	00005517          	auipc	a0,0x5
    800027b4:	ca850513          	add	a0,a0,-856 # 80007458 <states.0+0x158>
    800027b8:	ce7fd0ef          	jal	8000049e <printf>
    800027bc:	a831                	j	800027d8 <syscall+0x86>
        }
    
    } else {
        printf("%d %s: unknown sys call %d\n",
    800027be:	86ce                	mv	a3,s3
    800027c0:	16048613          	add	a2,s1,352
    800027c4:	588c                	lw	a1,48(s1)
    800027c6:	00005517          	auipc	a0,0x5
    800027ca:	caa50513          	add	a0,a0,-854 # 80007470 <states.0+0x170>
    800027ce:	cd1fd0ef          	jal	8000049e <printf>
            p->pid, p->name, num);
        p->trapframe->a0 = -1;
    800027d2:	70bc                	ld	a5,96(s1)
    800027d4:	577d                	li	a4,-1
    800027d6:	fbb8                	sd	a4,112(a5)
    }
}
    800027d8:	70a2                	ld	ra,40(sp)
    800027da:	7402                	ld	s0,32(sp)
    800027dc:	64e2                	ld	s1,24(sp)
    800027de:	6942                	ld	s2,16(sp)
    800027e0:	69a2                	ld	s3,8(sp)
    800027e2:	6145                	add	sp,sp,48
    800027e4:	8082                	ret

00000000800027e6 <sys_exit>:
#include "spinlock.h"
#include "proc.h"

uint64
sys_exit(void)
{
    800027e6:	1101                	add	sp,sp,-32
    800027e8:	ec06                	sd	ra,24(sp)
    800027ea:	e822                	sd	s0,16(sp)
    800027ec:	1000                	add	s0,sp,32
  int n;
  argint(0, &n);
    800027ee:	fec40593          	add	a1,s0,-20
    800027f2:	4501                	li	a0,0
    800027f4:	ef7ff0ef          	jal	800026ea <argint>
  exit(n);
    800027f8:	fec42503          	lw	a0,-20(s0)
    800027fc:	f18ff0ef          	jal	80001f14 <exit>
  return 0;  /* not reached */
}
    80002800:	4501                	li	a0,0
    80002802:	60e2                	ld	ra,24(sp)
    80002804:	6442                	ld	s0,16(sp)
    80002806:	6105                	add	sp,sp,32
    80002808:	8082                	ret

000000008000280a <sys_getpid>:

uint64
sys_getpid(void)
{
    8000280a:	1141                	add	sp,sp,-16
    8000280c:	e406                	sd	ra,8(sp)
    8000280e:	e022                	sd	s0,0(sp)
    80002810:	0800                	add	s0,sp,16
  return myproc()->pid;
    80002812:	81eff0ef          	jal	80001830 <myproc>
}
    80002816:	5908                	lw	a0,48(a0)
    80002818:	60a2                	ld	ra,8(sp)
    8000281a:	6402                	ld	s0,0(sp)
    8000281c:	0141                	add	sp,sp,16
    8000281e:	8082                	ret

0000000080002820 <sys_fork>:

uint64
sys_fork(void)
{
    80002820:	1141                	add	sp,sp,-16
    80002822:	e406                	sd	ra,8(sp)
    80002824:	e022                	sd	s0,0(sp)
    80002826:	0800                	add	s0,sp,16
  return fork();
    80002828:	b32ff0ef          	jal	80001b5a <fork>
}
    8000282c:	60a2                	ld	ra,8(sp)
    8000282e:	6402                	ld	s0,0(sp)
    80002830:	0141                	add	sp,sp,16
    80002832:	8082                	ret

0000000080002834 <sys_wait>:

uint64
sys_wait(void)
{
    80002834:	1101                	add	sp,sp,-32
    80002836:	ec06                	sd	ra,24(sp)
    80002838:	e822                	sd	s0,16(sp)
    8000283a:	1000                	add	s0,sp,32
  uint64 p;
  argaddr(0, &p);
    8000283c:	fe840593          	add	a1,s0,-24
    80002840:	4501                	li	a0,0
    80002842:	ec5ff0ef          	jal	80002706 <argaddr>
  return wait(p);
    80002846:	fe843503          	ld	a0,-24(s0)
    8000284a:	821ff0ef          	jal	8000206a <wait>
}
    8000284e:	60e2                	ld	ra,24(sp)
    80002850:	6442                	ld	s0,16(sp)
    80002852:	6105                	add	sp,sp,32
    80002854:	8082                	ret

0000000080002856 <sys_sbrk>:

uint64
sys_sbrk(void)
{
    80002856:	7179                	add	sp,sp,-48
    80002858:	f406                	sd	ra,40(sp)
    8000285a:	f022                	sd	s0,32(sp)
    8000285c:	ec26                	sd	s1,24(sp)
    8000285e:	1800                	add	s0,sp,48
  uint64 addr;
  int n;

  argint(0, &n);
    80002860:	fdc40593          	add	a1,s0,-36
    80002864:	4501                	li	a0,0
    80002866:	e85ff0ef          	jal	800026ea <argint>
  addr = myproc()->sz;
    8000286a:	fc7fe0ef          	jal	80001830 <myproc>
    8000286e:	6924                	ld	s1,80(a0)
  if(growproc(n) < 0)
    80002870:	fdc42503          	lw	a0,-36(s0)
    80002874:	a96ff0ef          	jal	80001b0a <growproc>
    80002878:	00054863          	bltz	a0,80002888 <sys_sbrk+0x32>
    return -1;
  return addr;
}
    8000287c:	8526                	mv	a0,s1
    8000287e:	70a2                	ld	ra,40(sp)
    80002880:	7402                	ld	s0,32(sp)
    80002882:	64e2                	ld	s1,24(sp)
    80002884:	6145                	add	sp,sp,48
    80002886:	8082                	ret
    return -1;
    80002888:	54fd                	li	s1,-1
    8000288a:	bfcd                	j	8000287c <sys_sbrk+0x26>

000000008000288c <sys_sleep>:

uint64
sys_sleep(void)
{
    8000288c:	7139                	add	sp,sp,-64
    8000288e:	fc06                	sd	ra,56(sp)
    80002890:	f822                	sd	s0,48(sp)
    80002892:	f426                	sd	s1,40(sp)
    80002894:	f04a                	sd	s2,32(sp)
    80002896:	ec4e                	sd	s3,24(sp)
    80002898:	0080                	add	s0,sp,64
  int n;
  uint ticks0;

  argint(0, &n);
    8000289a:	fcc40593          	add	a1,s0,-52
    8000289e:	4501                	li	a0,0
    800028a0:	e4bff0ef          	jal	800026ea <argint>
  if(n < 0)
    800028a4:	fcc42783          	lw	a5,-52(s0)
    800028a8:	0607c563          	bltz	a5,80002912 <sys_sleep+0x86>
    n = 0;
  acquire(&tickslock);
    800028ac:	00013517          	auipc	a0,0x13
    800028b0:	33450513          	add	a0,a0,820 # 80015be0 <tickslock>
    800028b4:	aecfe0ef          	jal	80000ba0 <acquire>
  ticks0 = ticks;
    800028b8:	00005917          	auipc	s2,0x5
    800028bc:	1c892903          	lw	s2,456(s2) # 80007a80 <ticks>
  while(ticks - ticks0 < n){
    800028c0:	fcc42783          	lw	a5,-52(s0)
    800028c4:	cb8d                	beqz	a5,800028f6 <sys_sleep+0x6a>
    if(killed(myproc())){
      release(&tickslock);
      return -1;
    }
    sleep(&ticks, &tickslock);
    800028c6:	00013997          	auipc	s3,0x13
    800028ca:	31a98993          	add	s3,s3,794 # 80015be0 <tickslock>
    800028ce:	00005497          	auipc	s1,0x5
    800028d2:	1b248493          	add	s1,s1,434 # 80007a80 <ticks>
    if(killed(myproc())){
    800028d6:	f5bfe0ef          	jal	80001830 <myproc>
    800028da:	f66ff0ef          	jal	80002040 <killed>
    800028de:	ed0d                	bnez	a0,80002918 <sys_sleep+0x8c>
    sleep(&ticks, &tickslock);
    800028e0:	85ce                	mv	a1,s3
    800028e2:	8526                	mv	a0,s1
    800028e4:	d24ff0ef          	jal	80001e08 <sleep>
  while(ticks - ticks0 < n){
    800028e8:	409c                	lw	a5,0(s1)
    800028ea:	412787bb          	subw	a5,a5,s2
    800028ee:	fcc42703          	lw	a4,-52(s0)
    800028f2:	fee7e2e3          	bltu	a5,a4,800028d6 <sys_sleep+0x4a>
  }
  release(&tickslock);
    800028f6:	00013517          	auipc	a0,0x13
    800028fa:	2ea50513          	add	a0,a0,746 # 80015be0 <tickslock>
    800028fe:	b3afe0ef          	jal	80000c38 <release>
  return 0;
    80002902:	4501                	li	a0,0
}
    80002904:	70e2                	ld	ra,56(sp)
    80002906:	7442                	ld	s0,48(sp)
    80002908:	74a2                	ld	s1,40(sp)
    8000290a:	7902                	ld	s2,32(sp)
    8000290c:	69e2                	ld	s3,24(sp)
    8000290e:	6121                	add	sp,sp,64
    80002910:	8082                	ret
    n = 0;
    80002912:	fc042623          	sw	zero,-52(s0)
    80002916:	bf59                	j	800028ac <sys_sleep+0x20>
      release(&tickslock);
    80002918:	00013517          	auipc	a0,0x13
    8000291c:	2c850513          	add	a0,a0,712 # 80015be0 <tickslock>
    80002920:	b18fe0ef          	jal	80000c38 <release>
      return -1;
    80002924:	557d                	li	a0,-1
    80002926:	bff9                	j	80002904 <sys_sleep+0x78>

0000000080002928 <sys_kill>:

uint64
sys_kill(void)
{
    80002928:	1101                	add	sp,sp,-32
    8000292a:	ec06                	sd	ra,24(sp)
    8000292c:	e822                	sd	s0,16(sp)
    8000292e:	1000                	add	s0,sp,32
  int pid;

  argint(0, &pid);
    80002930:	fec40593          	add	a1,s0,-20
    80002934:	4501                	li	a0,0
    80002936:	db5ff0ef          	jal	800026ea <argint>
  return kill(pid);
    8000293a:	fec42503          	lw	a0,-20(s0)
    8000293e:	e78ff0ef          	jal	80001fb6 <kill>
}
    80002942:	60e2                	ld	ra,24(sp)
    80002944:	6442                	ld	s0,16(sp)
    80002946:	6105                	add	sp,sp,32
    80002948:	8082                	ret

000000008000294a <sys_uptime>:

/* return how many clock tick interrupts have occurred */
/* since start. */
uint64
sys_uptime(void)
{
    8000294a:	1101                	add	sp,sp,-32
    8000294c:	ec06                	sd	ra,24(sp)
    8000294e:	e822                	sd	s0,16(sp)
    80002950:	e426                	sd	s1,8(sp)
    80002952:	1000                	add	s0,sp,32
  uint xticks;

  acquire(&tickslock);
    80002954:	00013517          	auipc	a0,0x13
    80002958:	28c50513          	add	a0,a0,652 # 80015be0 <tickslock>
    8000295c:	a44fe0ef          	jal	80000ba0 <acquire>
  xticks = ticks;
    80002960:	00005497          	auipc	s1,0x5
    80002964:	1204a483          	lw	s1,288(s1) # 80007a80 <ticks>
  release(&tickslock);
    80002968:	00013517          	auipc	a0,0x13
    8000296c:	27850513          	add	a0,a0,632 # 80015be0 <tickslock>
    80002970:	ac8fe0ef          	jal	80000c38 <release>
  return xticks;
}
    80002974:	02049513          	sll	a0,s1,0x20
    80002978:	9101                	srl	a0,a0,0x20
    8000297a:	60e2                	ld	ra,24(sp)
    8000297c:	6442                	ld	s0,16(sp)
    8000297e:	64a2                	ld	s1,8(sp)
    80002980:	6105                	add	sp,sp,32
    80002982:	8082                	ret

0000000080002984 <sys_trace>:

/* Assignment 1E update */
uint64
sys_trace(void)
{
    80002984:	1101                	add	sp,sp,-32
    80002986:	ec06                	sd	ra,24(sp)
    80002988:	e822                	sd	s0,16(sp)
    8000298a:	1000                	add	s0,sp,32
    int mask;
    
    argint(0, &mask);
    8000298c:	fec40593          	add	a1,s0,-20
    80002990:	4501                	li	a0,0
    80002992:	d59ff0ef          	jal	800026ea <argint>
    
    myproc()->trace_mask = mask;
    80002996:	e9bfe0ef          	jal	80001830 <myproc>
    8000299a:	fec42783          	lw	a5,-20(s0)
    8000299e:	c13c                	sw	a5,64(a0)
    
    return 0;  /* not reached */
}
    800029a0:	4501                	li	a0,0
    800029a2:	60e2                	ld	ra,24(sp)
    800029a4:	6442                	ld	s0,16(sp)
    800029a6:	6105                	add	sp,sp,32
    800029a8:	8082                	ret

00000000800029aa <binit>:
  struct buf head;
} bcache;

void
binit(void)
{
    800029aa:	7179                	add	sp,sp,-48
    800029ac:	f406                	sd	ra,40(sp)
    800029ae:	f022                	sd	s0,32(sp)
    800029b0:	ec26                	sd	s1,24(sp)
    800029b2:	e84a                	sd	s2,16(sp)
    800029b4:	e44e                	sd	s3,8(sp)
    800029b6:	e052                	sd	s4,0(sp)
    800029b8:	1800                	add	s0,sp,48
  struct buf *b;

  initlock(&bcache.lock, "bcache");
    800029ba:	00005597          	auipc	a1,0x5
    800029be:	d0658593          	add	a1,a1,-762 # 800076c0 <syscalls_names+0xb8>
    800029c2:	00013517          	auipc	a0,0x13
    800029c6:	23650513          	add	a0,a0,566 # 80015bf8 <bcache>
    800029ca:	956fe0ef          	jal	80000b20 <initlock>

  /* Create linked list of buffers */
  bcache.head.prev = &bcache.head;
    800029ce:	0001b797          	auipc	a5,0x1b
    800029d2:	22a78793          	add	a5,a5,554 # 8001dbf8 <bcache+0x8000>
    800029d6:	0001b717          	auipc	a4,0x1b
    800029da:	48a70713          	add	a4,a4,1162 # 8001de60 <bcache+0x8268>
    800029de:	2ae7b823          	sd	a4,688(a5)
  bcache.head.next = &bcache.head;
    800029e2:	2ae7bc23          	sd	a4,696(a5)
  for(b = bcache.buf; b < bcache.buf+NBUF; b++){
    800029e6:	00013497          	auipc	s1,0x13
    800029ea:	22a48493          	add	s1,s1,554 # 80015c10 <bcache+0x18>
    b->next = bcache.head.next;
    800029ee:	893e                	mv	s2,a5
    b->prev = &bcache.head;
    800029f0:	89ba                	mv	s3,a4
    initsleeplock(&b->lock, "buffer");
