
user/_forktest:     file format elf64-littleriscv


Disassembly of section .text:

0000000000000000 <print>:

#define N  1000

void
print(const char *s)
{
   0:	1101                	add	sp,sp,-32
   2:	ec06                	sd	ra,24(sp)
   4:	e822                	sd	s0,16(sp)
   6:	e426                	sd	s1,8(sp)
   8:	1000                	add	s0,sp,32
   a:	84aa                	mv	s1,a0
  write(1, s, strlen(s));
   c:	12c000ef          	jal	138 <strlen>
  10:	0005061b          	sext.w	a2,a0
  14:	85a6                	mv	a1,s1
  16:	4505                	li	a0,1
  18:	350000ef          	jal	368 <write>
}
  1c:	60e2                	ld	ra,24(sp)
  1e:	6442                	ld	s0,16(sp)
  20:	64a2                	ld	s1,8(sp)
  22:	6105                	add	sp,sp,32
  24:	8082                	ret

0000000000000026 <forktest>:

void
forktest(void)
{
  26:	1101                	add	sp,sp,-32
  28:	ec06                	sd	ra,24(sp)
  2a:	e822                	sd	s0,16(sp)
  2c:	e426                	sd	s1,8(sp)
  2e:	e04a                	sd	s2,0(sp)
  30:	1000                	add	s0,sp,32
  int n, pid;

  print("fork test\n");
  32:	00000517          	auipc	a0,0x0
  36:	3be50513          	add	a0,a0,958 # 3f0 <symlink+0x8>
  3a:	fc7ff0ef          	jal	0 <print>

  for(n=0; n<N; n++){
  3e:	4481                	li	s1,0
  40:	3e800913          	li	s2,1000
    pid = fork();
  44:	2fc000ef          	jal	340 <fork>
    if(pid < 0)
  48:	02054163          	bltz	a0,6a <forktest+0x44>
      break;
    if(pid == 0)
  4c:	cd09                	beqz	a0,66 <forktest+0x40>
  for(n=0; n<N; n++){
  4e:	2485                	addw	s1,s1,1
  50:	ff249ae3          	bne	s1,s2,44 <forktest+0x1e>
      exit(0);
  }

  if(n == N){
    print("fork claimed to work N times!\n");
  54:	00000517          	auipc	a0,0x0
  58:	3ac50513          	add	a0,a0,940 # 400 <symlink+0x18>
  5c:	fa5ff0ef          	jal	0 <print>
    exit(1);
  60:	4505                	li	a0,1
  62:	2e6000ef          	jal	348 <exit>
      exit(0);
  66:	2e2000ef          	jal	348 <exit>
  if(n == N){
  6a:	3e800793          	li	a5,1000
  6e:	fef483e3          	beq	s1,a5,54 <forktest+0x2e>
  }

  for(; n > 0; n--){
  72:	00905963          	blez	s1,84 <forktest+0x5e>
    if(wait(0) < 0){
  76:	4501                	li	a0,0
  78:	2d8000ef          	jal	350 <wait>
  7c:	02054663          	bltz	a0,a8 <forktest+0x82>
  for(; n > 0; n--){
  80:	34fd                	addw	s1,s1,-1
  82:	f8f5                	bnez	s1,76 <forktest+0x50>
      print("wait stopped early\n");
      exit(1);
    }
  }

  if(wait(0) != -1){
  84:	4501                	li	a0,0
  86:	2ca000ef          	jal	350 <wait>
  8a:	57fd                	li	a5,-1
  8c:	02f51763          	bne	a0,a5,ba <forktest+0x94>
    print("wait got too many\n");
    exit(1);
  }

  print("fork test OK\n");
  90:	00000517          	auipc	a0,0x0
  94:	3c050513          	add	a0,a0,960 # 450 <symlink+0x68>
  98:	f69ff0ef          	jal	0 <print>
}
  9c:	60e2                	ld	ra,24(sp)
  9e:	6442                	ld	s0,16(sp)
  a0:	64a2                	ld	s1,8(sp)
  a2:	6902                	ld	s2,0(sp)
  a4:	6105                	add	sp,sp,32
  a6:	8082                	ret
      print("wait stopped early\n");
  a8:	00000517          	auipc	a0,0x0
  ac:	37850513          	add	a0,a0,888 # 420 <symlink+0x38>
  b0:	f51ff0ef          	jal	0 <print>
      exit(1);
  b4:	4505                	li	a0,1
  b6:	292000ef          	jal	348 <exit>
    print("wait got too many\n");
  ba:	00000517          	auipc	a0,0x0
  be:	37e50513          	add	a0,a0,894 # 438 <symlink+0x50>
  c2:	f3fff0ef          	jal	0 <print>
    exit(1);
  c6:	4505                	li	a0,1
  c8:	280000ef          	jal	348 <exit>

00000000000000cc <main>:

int
main(void)
{
  cc:	1141                	add	sp,sp,-16
  ce:	e406                	sd	ra,8(sp)
  d0:	e022                	sd	s0,0(sp)
  d2:	0800                	add	s0,sp,16
  forktest();
  d4:	f53ff0ef          	jal	26 <forktest>
  exit(0);
  d8:	4501                	li	a0,0
  da:	26e000ef          	jal	348 <exit>

00000000000000de <start>:
/* */
/* wrapper so that it's OK if main() does not call exit(). */
/* */
void
start()
{
  de:	1141                	add	sp,sp,-16
  e0:	e406                	sd	ra,8(sp)
  e2:	e022                	sd	s0,0(sp)
  e4:	0800                	add	s0,sp,16
  extern int main();
  main();
  e6:	fe7ff0ef          	jal	cc <main>
  exit(0);
  ea:	4501                	li	a0,0
  ec:	25c000ef          	jal	348 <exit>

00000000000000f0 <strcpy>:
}

char*
strcpy(char *s, const char *t)
{
  f0:	1141                	add	sp,sp,-16
  f2:	e422                	sd	s0,8(sp)
  f4:	0800                	add	s0,sp,16
  char *os;

  os = s;
  while((*s++ = *t++) != 0)
  f6:	87aa                	mv	a5,a0
  f8:	0585                	add	a1,a1,1
  fa:	0785                	add	a5,a5,1
  fc:	fff5c703          	lbu	a4,-1(a1)
 100:	fee78fa3          	sb	a4,-1(a5)
 104:	fb75                	bnez	a4,f8 <strcpy+0x8>
    ;
  return os;
}
 106:	6422                	ld	s0,8(sp)
 108:	0141                	add	sp,sp,16
 10a:	8082                	ret

000000000000010c <strcmp>:

int
strcmp(const char *p, const char *q)
{
 10c:	1141                	add	sp,sp,-16
 10e:	e422                	sd	s0,8(sp)
 110:	0800                	add	s0,sp,16
  while(*p && *p == *q)
 112:	00054783          	lbu	a5,0(a0)
 116:	cb91                	beqz	a5,12a <strcmp+0x1e>
 118:	0005c703          	lbu	a4,0(a1)
 11c:	00f71763          	bne	a4,a5,12a <strcmp+0x1e>
    p++, q++;
 120:	0505                	add	a0,a0,1
 122:	0585                	add	a1,a1,1
  while(*p && *p == *q)
 124:	00054783          	lbu	a5,0(a0)
 128:	fbe5                	bnez	a5,118 <strcmp+0xc>
  return (uchar)*p - (uchar)*q;
 12a:	0005c503          	lbu	a0,0(a1)
}
 12e:	40a7853b          	subw	a0,a5,a0
 132:	6422                	ld	s0,8(sp)
 134:	0141                	add	sp,sp,16
 136:	8082                	ret

0000000000000138 <strlen>:

uint
strlen(const char *s)
{
 138:	1141                	add	sp,sp,-16
 13a:	e422                	sd	s0,8(sp)
 13c:	0800                	add	s0,sp,16
  int n;

  for(n = 0; s[n]; n++)
 13e:	00054783          	lbu	a5,0(a0)
 142:	cf91                	beqz	a5,15e <strlen+0x26>
 144:	0505                	add	a0,a0,1
 146:	87aa                	mv	a5,a0
 148:	86be                	mv	a3,a5
 14a:	0785                	add	a5,a5,1
 14c:	fff7c703          	lbu	a4,-1(a5)
 150:	ff65                	bnez	a4,148 <strlen+0x10>
 152:	40a6853b          	subw	a0,a3,a0
 156:	2505                	addw	a0,a0,1
    ;
  return n;
}
 158:	6422                	ld	s0,8(sp)
 15a:	0141                	add	sp,sp,16
 15c:	8082                	ret
  for(n = 0; s[n]; n++)
 15e:	4501                	li	a0,0
 160:	bfe5                	j	158 <strlen+0x20>

0000000000000162 <memset>:

void*
memset(void *dst, int c, uint n)
{
 162:	1141                	add	sp,sp,-16
 164:	e422                	sd	s0,8(sp)
 166:	0800                	add	s0,sp,16
  char *cdst = (char *) dst;
  int i;
  for(i = 0; i < n; i++){
 168:	ca19                	beqz	a2,17e <memset+0x1c>
 16a:	87aa                	mv	a5,a0
 16c:	1602                	sll	a2,a2,0x20
 16e:	9201                	srl	a2,a2,0x20
 170:	00a60733          	add	a4,a2,a0
    cdst[i] = c;
 174:	00b78023          	sb	a1,0(a5)
  for(i = 0; i < n; i++){
 178:	0785                	add	a5,a5,1
 17a:	fee79de3          	bne	a5,a4,174 <memset+0x12>
  }
  return dst;
}
 17e:	6422                	ld	s0,8(sp)
 180:	0141                	add	sp,sp,16
 182:	8082                	ret

0000000000000184 <strchr>:

char*
strchr(const char *s, char c)
{
 184:	1141                	add	sp,sp,-16
 186:	e422                	sd	s0,8(sp)
 188:	0800                	add	s0,sp,16
  for(; *s; s++)
 18a:	00054783          	lbu	a5,0(a0)
 18e:	cb99                	beqz	a5,1a4 <strchr+0x20>
    if(*s == c)
 190:	00f58763          	beq	a1,a5,19e <strchr+0x1a>
  for(; *s; s++)
 194:	0505                	add	a0,a0,1
 196:	00054783          	lbu	a5,0(a0)
 19a:	fbfd                	bnez	a5,190 <strchr+0xc>
      return (char*)s;
  return 0;
 19c:	4501                	li	a0,0
}
 19e:	6422                	ld	s0,8(sp)
 1a0:	0141                	add	sp,sp,16
 1a2:	8082                	ret
  return 0;
 1a4:	4501                	li	a0,0
 1a6:	bfe5                	j	19e <strchr+0x1a>

00000000000001a8 <gets>:

char*
gets(char *buf, int max)
{
 1a8:	711d                	add	sp,sp,-96
 1aa:	ec86                	sd	ra,88(sp)
 1ac:	e8a2                	sd	s0,80(sp)
 1ae:	e4a6                	sd	s1,72(sp)
 1b0:	e0ca                	sd	s2,64(sp)
 1b2:	fc4e                	sd	s3,56(sp)
 1b4:	f852                	sd	s4,48(sp)
 1b6:	f456                	sd	s5,40(sp)
 1b8:	f05a                	sd	s6,32(sp)
 1ba:	ec5e                	sd	s7,24(sp)
 1bc:	1080                	add	s0,sp,96
 1be:	8baa                	mv	s7,a0
 1c0:	8a2e                	mv	s4,a1
  int i, cc;
  char c;

  for(i=0; i+1 < max; ){
 1c2:	892a                	mv	s2,a0
 1c4:	4481                	li	s1,0
    cc = read(0, &c, 1);
    if(cc < 1)
      break;
    buf[i++] = c;
    if(c == '\n' || c == '\r')
 1c6:	4aa9                	li	s5,10
 1c8:	4b35                	li	s6,13
  for(i=0; i+1 < max; ){
 1ca:	89a6                	mv	s3,s1
 1cc:	2485                	addw	s1,s1,1
 1ce:	0344d663          	bge	s1,s4,1fa <gets+0x52>
    cc = read(0, &c, 1);
 1d2:	4605                	li	a2,1
 1d4:	faf40593          	add	a1,s0,-81
 1d8:	4501                	li	a0,0
 1da:	186000ef          	jal	360 <read>
    if(cc < 1)
 1de:	00a05e63          	blez	a0,1fa <gets+0x52>
    buf[i++] = c;
 1e2:	faf44783          	lbu	a5,-81(s0)
 1e6:	00f90023          	sb	a5,0(s2)
    if(c == '\n' || c == '\r')
 1ea:	01578763          	beq	a5,s5,1f8 <gets+0x50>
 1ee:	0905                	add	s2,s2,1
 1f0:	fd679de3          	bne	a5,s6,1ca <gets+0x22>
  for(i=0; i+1 < max; ){
 1f4:	89a6                	mv	s3,s1
 1f6:	a011                	j	1fa <gets+0x52>
 1f8:	89a6                	mv	s3,s1
      break;
  }
  buf[i] = '\0';
 1fa:	99de                	add	s3,s3,s7
 1fc:	00098023          	sb	zero,0(s3)
  return buf;
}
 200:	855e                	mv	a0,s7
 202:	60e6                	ld	ra,88(sp)
 204:	6446                	ld	s0,80(sp)
 206:	64a6                	ld	s1,72(sp)
 208:	6906                	ld	s2,64(sp)
 20a:	79e2                	ld	s3,56(sp)
 20c:	7a42                	ld	s4,48(sp)
 20e:	7aa2                	ld	s5,40(sp)
 210:	7b02                	ld	s6,32(sp)
 212:	6be2                	ld	s7,24(sp)
 214:	6125                	add	sp,sp,96
 216:	8082                	ret

0000000000000218 <stat>:

int
stat(const char *n, struct stat *st)
{
 218:	1101                	add	sp,sp,-32
 21a:	ec06                	sd	ra,24(sp)
 21c:	e822                	sd	s0,16(sp)
 21e:	e426                	sd	s1,8(sp)
 220:	e04a                	sd	s2,0(sp)
 222:	1000                	add	s0,sp,32
 224:	892e                	mv	s2,a1
  int fd;
  int r;

  fd = open(n, O_RDONLY);
 226:	4581                	li	a1,0
 228:	160000ef          	jal	388 <open>
  if(fd < 0)
 22c:	02054163          	bltz	a0,24e <stat+0x36>
 230:	84aa                	mv	s1,a0
    return -1;
  r = fstat(fd, st);
 232:	85ca                	mv	a1,s2
 234:	16c000ef          	jal	3a0 <fstat>
 238:	892a                	mv	s2,a0
  close(fd);
 23a:	8526                	mv	a0,s1
 23c:	134000ef          	jal	370 <close>
  return r;
}
 240:	854a                	mv	a0,s2
 242:	60e2                	ld	ra,24(sp)
 244:	6442                	ld	s0,16(sp)
 246:	64a2                	ld	s1,8(sp)
 248:	6902                	ld	s2,0(sp)
 24a:	6105                	add	sp,sp,32
 24c:	8082                	ret
    return -1;
 24e:	597d                	li	s2,-1
 250:	bfc5                	j	240 <stat+0x28>

0000000000000252 <atoi>:

int
atoi(const char *s)
{
 252:	1141                	add	sp,sp,-16
 254:	e422                	sd	s0,8(sp)
 256:	0800                	add	s0,sp,16
  int n;

  n = 0;
  while('0' <= *s && *s <= '9')
 258:	00054683          	lbu	a3,0(a0)
 25c:	fd06879b          	addw	a5,a3,-48
 260:	0ff7f793          	zext.b	a5,a5
 264:	4625                	li	a2,9
 266:	02f66863          	bltu	a2,a5,296 <atoi+0x44>
 26a:	872a                	mv	a4,a0
  n = 0;
 26c:	4501                	li	a0,0
    n = n*10 + *s++ - '0';
 26e:	0705                	add	a4,a4,1
 270:	0025179b          	sllw	a5,a0,0x2
 274:	9fa9                	addw	a5,a5,a0
 276:	0017979b          	sllw	a5,a5,0x1
 27a:	9fb5                	addw	a5,a5,a3
 27c:	fd07851b          	addw	a0,a5,-48
  while('0' <= *s && *s <= '9')
 280:	00074683          	lbu	a3,0(a4)
 284:	fd06879b          	addw	a5,a3,-48
 288:	0ff7f793          	zext.b	a5,a5
 28c:	fef671e3          	bgeu	a2,a5,26e <atoi+0x1c>
  return n;
}
 290:	6422                	ld	s0,8(sp)
 292:	0141                	add	sp,sp,16
 294:	8082                	ret
  n = 0;
 296:	4501                	li	a0,0
 298:	bfe5                	j	290 <atoi+0x3e>

000000000000029a <memmove>:

void*
memmove(void *vdst, const void *vsrc, int n)
{
 29a:	1141                	add	sp,sp,-16
 29c:	e422                	sd	s0,8(sp)
 29e:	0800                	add	s0,sp,16
  char *dst;
  const char *src;

  dst = vdst;
  src = vsrc;
  if (src > dst) {
 2a0:	02b57463          	bgeu	a0,a1,2c8 <memmove+0x2e>
    while(n-- > 0)
 2a4:	00c05f63          	blez	a2,2c2 <memmove+0x28>
 2a8:	1602                	sll	a2,a2,0x20
 2aa:	9201                	srl	a2,a2,0x20
 2ac:	00c507b3          	add	a5,a0,a2
  dst = vdst;
 2b0:	872a                	mv	a4,a0
      *dst++ = *src++;
 2b2:	0585                	add	a1,a1,1
 2b4:	0705                	add	a4,a4,1
 2b6:	fff5c683          	lbu	a3,-1(a1)
 2ba:	fed70fa3          	sb	a3,-1(a4)
    while(n-- > 0)
 2be:	fee79ae3          	bne	a5,a4,2b2 <memmove+0x18>
    src += n;
    while(n-- > 0)
      *--dst = *--src;
  }
  return vdst;
}
 2c2:	6422                	ld	s0,8(sp)
 2c4:	0141                	add	sp,sp,16
 2c6:	8082                	ret
    dst += n;
 2c8:	00c50733          	add	a4,a0,a2
    src += n;
 2cc:	95b2                	add	a1,a1,a2
    while(n-- > 0)
 2ce:	fec05ae3          	blez	a2,2c2 <memmove+0x28>
 2d2:	fff6079b          	addw	a5,a2,-1
 2d6:	1782                	sll	a5,a5,0x20
 2d8:	9381                	srl	a5,a5,0x20
 2da:	fff7c793          	not	a5,a5
 2de:	97ba                	add	a5,a5,a4
      *--dst = *--src;
 2e0:	15fd                	add	a1,a1,-1
 2e2:	177d                	add	a4,a4,-1
 2e4:	0005c683          	lbu	a3,0(a1)
 2e8:	00d70023          	sb	a3,0(a4)
    while(n-- > 0)
 2ec:	fee79ae3          	bne	a5,a4,2e0 <memmove+0x46>
 2f0:	bfc9                	j	2c2 <memmove+0x28>

00000000000002f2 <memcmp>:

int
memcmp(const void *s1, const void *s2, uint n)
{
 2f2:	1141                	add	sp,sp,-16
 2f4:	e422                	sd	s0,8(sp)
 2f6:	0800                	add	s0,sp,16
  const char *p1 = s1, *p2 = s2;
  while (n-- > 0) {
 2f8:	ca05                	beqz	a2,328 <memcmp+0x36>
 2fa:	fff6069b          	addw	a3,a2,-1
 2fe:	1682                	sll	a3,a3,0x20
 300:	9281                	srl	a3,a3,0x20
 302:	0685                	add	a3,a3,1
 304:	96aa                	add	a3,a3,a0
    if (*p1 != *p2) {
 306:	00054783          	lbu	a5,0(a0)
 30a:	0005c703          	lbu	a4,0(a1)
 30e:	00e79863          	bne	a5,a4,31e <memcmp+0x2c>
      return *p1 - *p2;
    }
    p1++;
 312:	0505                	add	a0,a0,1
    p2++;
 314:	0585                	add	a1,a1,1
  while (n-- > 0) {
 316:	fed518e3          	bne	a0,a3,306 <memcmp+0x14>
  }
  return 0;
 31a:	4501                	li	a0,0
 31c:	a019                	j	322 <memcmp+0x30>
      return *p1 - *p2;
 31e:	40e7853b          	subw	a0,a5,a4
}
 322:	6422                	ld	s0,8(sp)
 324:	0141                	add	sp,sp,16
 326:	8082                	ret
  return 0;
 328:	4501                	li	a0,0
 32a:	bfe5                	j	322 <memcmp+0x30>

000000000000032c <memcpy>:

void *
memcpy(void *dst, const void *src, uint n)
{
 32c:	1141                	add	sp,sp,-16
 32e:	e406                	sd	ra,8(sp)
 330:	e022                	sd	s0,0(sp)
 332:	0800                	add	s0,sp,16
  return memmove(dst, src, n);
 334:	f67ff0ef          	jal	29a <memmove>
}
 338:	60a2                	ld	ra,8(sp)
 33a:	6402                	ld	s0,0(sp)
 33c:	0141                	add	sp,sp,16
 33e:	8082                	ret

0000000000000340 <fork>:
# generated by usys.pl - do not edit
#include "kernel/syscall.h"
.global fork
fork:
 li a7, SYS_fork
 340:	4885                	li	a7,1
 ecall
 342:	00000073          	ecall
 ret
 346:	8082                	ret

0000000000000348 <exit>:
.global exit
exit:
 li a7, SYS_exit
 348:	4889                	li	a7,2
 ecall
 34a:	00000073          	ecall
 ret
 34e:	8082                	ret

0000000000000350 <wait>:
.global wait
wait:
 li a7, SYS_wait
 350:	488d                	li	a7,3
 ecall
 352:	00000073          	ecall
 ret
 356:	8082                	ret

0000000000000358 <pipe>:
.global pipe
pipe:
 li a7, SYS_pipe
 358:	4891                	li	a7,4
 ecall
 35a:	00000073          	ecall
 ret
 35e:	8082                	ret

0000000000000360 <read>:
.global read
read:
 li a7, SYS_read
 360:	4895                	li	a7,5
 ecall
 362:	00000073          	ecall
 ret
 366:	8082                	ret

0000000000000368 <write>:
.global write
write:
 li a7, SYS_write
 368:	48c1                	li	a7,16
 ecall
 36a:	00000073          	ecall
 ret
 36e:	8082                	ret

0000000000000370 <close>:
.global close
close:
 li a7, SYS_close
 370:	48d5                	li	a7,21
 ecall
 372:	00000073          	ecall
 ret
 376:	8082                	ret

0000000000000378 <kill>:
.global kill
kill:
 li a7, SYS_kill
 378:	4899                	li	a7,6
 ecall
 37a:	00000073          	ecall
 ret
 37e:	8082                	ret

0000000000000380 <exec>:
.global exec
exec:
 li a7, SYS_exec
 380:	489d                	li	a7,7
 ecall
 382:	00000073          	ecall
 ret
 386:	8082                	ret

0000000000000388 <open>:
.global open
open:
 li a7, SYS_open
 388:	48bd                	li	a7,15
 ecall
 38a:	00000073          	ecall
 ret
 38e:	8082                	ret

0000000000000390 <mknod>:
.global mknod
mknod:
 li a7, SYS_mknod
 390:	48c5                	li	a7,17
 ecall
 392:	00000073          	ecall
 ret
 396:	8082                	ret

0000000000000398 <unlink>:
.global unlink
unlink:
 li a7, SYS_unlink
 398:	48c9                	li	a7,18
 ecall
 39a:	00000073          	ecall
 ret
 39e:	8082                	ret

00000000000003a0 <fstat>:
.global fstat
fstat:
 li a7, SYS_fstat
 3a0:	48a1                	li	a7,8
 ecall
 3a2:	00000073          	ecall
 ret
 3a6:	8082                	ret

00000000000003a8 <link>:
.global link
link:
 li a7, SYS_link
 3a8:	48cd                	li	a7,19
 ecall
 3aa:	00000073          	ecall
 ret
 3ae:	8082                	ret

00000000000003b0 <mkdir>:
.global mkdir
mkdir:
 li a7, SYS_mkdir
 3b0:	48d1                	li	a7,20
 ecall
 3b2:	00000073          	ecall
 ret
 3b6:	8082                	ret

00000000000003b8 <chdir>:
.global chdir
chdir:
 li a7, SYS_chdir
 3b8:	48a5                	li	a7,9
 ecall
 3ba:	00000073          	ecall
 ret
 3be:	8082                	ret

00000000000003c0 <dup>:
.global dup
dup:
 li a7, SYS_dup
 3c0:	48a9                	li	a7,10
 ecall
 3c2:	00000073          	ecall
 ret
 3c6:	8082                	ret

00000000000003c8 <getpid>:
.global getpid
getpid:
 li a7, SYS_getpid
 3c8:	48ad                	li	a7,11
 ecall
 3ca:	00000073          	ecall
 ret
 3ce:	8082                	ret

00000000000003d0 <sbrk>:
.global sbrk
sbrk:
 li a7, SYS_sbrk
 3d0:	48b1                	li	a7,12
 ecall
 3d2:	00000073          	ecall
 ret
 3d6:	8082                	ret

00000000000003d8 <sleep>:
.global sleep
sleep:
 li a7, SYS_sleep
 3d8:	48b5                	li	a7,13
 ecall
 3da:	00000073          	ecall
 ret
 3de:	8082                	ret

00000000000003e0 <uptime>:
.global uptime
uptime:
 li a7, SYS_uptime
 3e0:	48b9                	li	a7,14
 ecall
 3e2:	00000073          	ecall
 ret
 3e6:	8082                	ret

00000000000003e8 <symlink>:
.global symlink
symlink:
 li a7, SYS_symlink
 3e8:	48d9                	li	a7,22
 ecall
 3ea:	00000073          	ecall
 ret
 3ee:	8082                	ret
